In archive libResourceBasedFileSystem.a:

rbfs.o:     file format elf32-avr

Sections:
Idx Name          Size      VMA       LMA       File off  Algn
  0 .text         00000000  00000000  00000000  00000034  2**0
                  CONTENTS, ALLOC, LOAD, READONLY, CODE
  1 .data         00000000  00000000  00000000  00000034  2**0
                  CONTENTS, ALLOC, LOAD, DATA
  2 .bss          00000000  00000000  00000000  00000034  2**0
                  ALLOC
  3 .stab         00001308  00000000  00000000  00000034  2**2
                  CONTENTS, RELOC, READONLY, DEBUGGING
  4 .stabstr      000018a6  00000000  00000000  0000133c  2**0
                  CONTENTS, READONLY, DEBUGGING
  5 .text.rbfs_format 00000076  00000000  00000000  00002be2  2**0
                  CONTENTS, ALLOC, LOAD, RELOC, READONLY, CODE
  6 .text.rbfs_mount 0000007a  00000000  00000000  00002c58  2**0
                  CONTENTS, ALLOC, LOAD, RELOC, READONLY, CODE
  7 .text.rbfs_umount 00000038  00000000  00000000  00002cd2  2**0
                  CONTENTS, ALLOC, LOAD, RELOC, READONLY, CODE
  8 .text.rbfs_open 000001b8  00000000  00000000  00002d0a  2**0
                  CONTENTS, ALLOC, LOAD, RELOC, READONLY, CODE
  9 .text.rbfs_close 0000004e  00000000  00000000  00002ec2  2**0
                  CONTENTS, ALLOC, LOAD, RELOC, READONLY, CODE
 10 .text.rbfs_read 0000010e  00000000  00000000  00002f10  2**0
                  CONTENTS, ALLOC, LOAD, RELOC, READONLY, CODE
 11 .text.rbfs_write 00000138  00000000  00000000  0000301e  2**0
                  CONTENTS, ALLOC, LOAD, RELOC, READONLY, CODE
 12 .text.rbfs_seek 00000178  00000000  00000000  00003156  2**0
                  CONTENTS, ALLOC, LOAD, RELOC, READONLY, CODE
 13 .text.rbfs_truncate 00000166  00000000  00000000  000032ce  2**0
                  CONTENTS, ALLOC, LOAD, RELOC, READONLY, CODE
 14 .text.rbfs_sync 000000ae  00000000  00000000  00003434  2**0
                  CONTENTS, ALLOC, LOAD, RELOC, READONLY, CODE
 15 .text.rbfs_stat 00000036  00000000  00000000  000034e2  2**0
                  CONTENTS, ALLOC, LOAD, RELOC, READONLY, CODE
 16 .text.rbfs_rewind 00000056  00000000  00000000  00003518  2**0
                  CONTENTS, ALLOC, LOAD, RELOC, READONLY, CODE
 17 .text.rbfs_alloc 0000012e  00000000  00000000  0000356e  2**0
                  CONTENTS, ALLOC, LOAD, RELOC, READONLY, CODE
 18 .text.rbfs_release 000000bc  00000000  00000000  0000369c  2**0
                  CONTENTS, ALLOC, LOAD, RELOC, READONLY, CODE
 19 .text.rbfs_size 00000022  00000000  00000000  00003758  2**0
                  CONTENTS, ALLOC, LOAD, RELOC, READONLY, CODE
 20 .text.rbfs_tell 00000022  00000000  00000000  0000377a  2**0
                  CONTENTS, ALLOC, LOAD, RELOC, READONLY, CODE
 21 .text.rbfs_eor 00000020  00000000  00000000  0000379c  2**0
                  CONTENTS, ALLOC, LOAD, RELOC, READONLY, CODE
 22 .text.rbfs_error 0000004a  00000000  00000000  000037bc  2**0
                  CONTENTS, ALLOC, LOAD, RELOC, READONLY, CODE
 23 .text.rbfs_available_space 0000003e  00000000  00000000  00003806  2**0
                  CONTENTS, ALLOC, LOAD, RELOC, READONLY, CODE
 24 .text.rbfs_total_space 0000003e  00000000  00000000  00003844  2**0
                  CONTENTS, ALLOC, LOAD, RELOC, READONLY, CODE
 25 .comment      00000012  00000000  00000000  00003882  2**0
                  CONTENTS, READONLY

Disassembly of section .text.rbfs_format:

00000000 <rbfs_format>:

rbfs_resource_size_t rbfs_available_space(rbfs_t *rbfs) {
    return rbfs->free_clusters * rbfs->sizeof_cluster_data;
}

rbfs_resource_size_t rbfs_total_space(rbfs_t *rbfs) {
   0:	cf 93       	push	r28
   2:	df 93       	push	r29
   4:	00 d0       	rcall	.+0      	; 0x6 <rbfs_format+0x6>
   6:	1f 92       	push	r1
   8:	cd b7       	in	r28, 0x3d	; 61
   a:	de b7       	in	r29, 0x3e	; 62
   c:	9b 83       	std	Y+3, r25	; 0x03
    return rbfs->cluster_count * rbfs->sizeof_cluster_data;
   e:	8a 83       	std	Y+2, r24	; 0x02
  10:	8a 81       	ldd	r24, Y+2	; 0x02
  12:	9b 81       	ldd	r25, Y+3	; 0x03
  14:	fc 01       	movw	r30, r24
  16:	20 81       	ld	r18, Z
  18:	8a 81       	ldd	r24, Y+2	; 0x02
  1a:	9b 81       	ldd	r25, Y+3	; 0x03
  1c:	bc 01       	movw	r22, r24
  1e:	82 2f       	mov	r24, r18
  20:	0e 94 00 00 	call	0	; 0x0 <rbfs_format>
  24:	19 82       	std	Y+1, r1	; 0x01
  26:	00 c0       	rjmp	.+0      	; 0x28 <rbfs_format+0x28>
  28:	8a 81       	ldd	r24, Y+2	; 0x02
  2a:	9b 81       	ldd	r25, Y+3	; 0x03
  2c:	69 81       	ldd	r22, Y+1	; 0x01
  2e:	0e 94 00 00 	call	0	; 0x0 <rbfs_format>
  32:	89 81       	ldd	r24, Y+1	; 0x01
}
  34:	8f 5f       	subi	r24, 0xFF	; 255
  36:	89 83       	std	Y+1, r24	; 0x01
  38:	8a 81       	ldd	r24, Y+2	; 0x02
  3a:	9b 81       	ldd	r25, Y+3	; 0x03
  3c:	fc 01       	movw	r30, r24
  3e:	95 85       	ldd	r25, Z+13	; 0x0d
  40:	89 81       	ldd	r24, Y+1	; 0x01
  42:	89 17       	cp	r24, r25
  44:	00 f0       	brcs	.+0      	; 0x46 <rbfs_format+0x46>
  46:	19 82       	std	Y+1, r1	; 0x01
  48:	00 c0       	rjmp	.+0      	; 0x4a <rbfs_format+0x4a>
  4a:	8a 81       	ldd	r24, Y+2	; 0x02
  4c:	9b 81       	ldd	r25, Y+3	; 0x03
  4e:	69 81       	ldd	r22, Y+1	; 0x01
  50:	0e 94 00 00 	call	0	; 0x0 <rbfs_format>
  54:	89 81       	ldd	r24, Y+1	; 0x01
  56:	8f 5f       	subi	r24, 0xFF	; 255
  58:	89 83       	std	Y+1, r24	; 0x01
  5a:	8a 81       	ldd	r24, Y+2	; 0x02
  5c:	9b 81       	ldd	r25, Y+3	; 0x03
  5e:	fc 01       	movw	r30, r24
  60:	96 85       	ldd	r25, Z+14	; 0x0e
  62:	89 81       	ldd	r24, Y+1	; 0x01
  64:	89 17       	cp	r24, r25
  66:	00 f0       	brcs	.+0      	; 0x68 <rbfs_format+0x68>
  68:	80 e0       	ldi	r24, 0x00	; 0
  6a:	0f 90       	pop	r0
  6c:	0f 90       	pop	r0
  6e:	0f 90       	pop	r0
  70:	df 91       	pop	r29
  72:	cf 91       	pop	r28
  74:	08 95       	ret

Disassembly of section .text.rbfs_mount:

00000076 <rbfs_mount>:
  76:	cf 93       	push	r28
  78:	df 93       	push	r29
  7a:	00 d0       	rcall	.+0      	; 0x7c <rbfs_mount+0x6>
  7c:	00 d0       	rcall	.+0      	; 0x7e <rbfs_mount+0x8>
  7e:	cd b7       	in	r28, 0x3d	; 61
  80:	de b7       	in	r29, 0x3e	; 62
  82:	89 83       	std	Y+1, r24	; 0x01
  84:	7b 83       	std	Y+3, r23	; 0x03
  86:	6a 83       	std	Y+2, r22	; 0x02
  88:	4c 83       	std	Y+4, r20	; 0x04
  8a:	89 81       	ldd	r24, Y+1	; 0x01
  8c:	0e 94 00 00 	call	0	; 0x0 <__tmp_reg__>
  90:	88 23       	and	r24, r24
  92:	01 f0       	breq	.+0      	; 0x94 <rbfs_mount+0x1e>
  94:	85 e0       	ldi	r24, 0x05	; 5
  96:	00 c0       	rjmp	.+0      	; 0x98 <rbfs_mount+0x22>
  98:	8a 81       	ldd	r24, Y+2	; 0x02
  9a:	9b 81       	ldd	r25, Y+3	; 0x03
  9c:	bc 01       	movw	r22, r24
  9e:	89 81       	ldd	r24, Y+1	; 0x01
  a0:	0e 94 00 00 	call	0	; 0x0 <__tmp_reg__>
  a4:	61 e0       	ldi	r22, 0x01	; 1
  a6:	89 81       	ldd	r24, Y+1	; 0x01
  a8:	0e 94 00 00 	call	0	; 0x0 <__tmp_reg__>
  ac:	8c 81       	ldd	r24, Y+4	; 0x04
  ae:	88 2f       	mov	r24, r24
  b0:	90 e0       	ldi	r25, 0x00	; 0
  b2:	81 70       	andi	r24, 0x01	; 1
  b4:	99 27       	eor	r25, r25
  b6:	00 97       	sbiw	r24, 0x00	; 0
  b8:	01 f0       	breq	.+0      	; 0xba <rbfs_mount+0x44>
  ba:	8a 81       	ldd	r24, Y+2	; 0x02
  bc:	9b 81       	ldd	r25, Y+3	; 0x03
  be:	fc 01       	movw	r30, r24
  c0:	82 89       	ldd	r24, Z+18	; 0x12
  c2:	28 2f       	mov	r18, r24
  c4:	22 60       	ori	r18, 0x02	; 2
  c6:	8a 81       	ldd	r24, Y+2	; 0x02
  c8:	9b 81       	ldd	r25, Y+3	; 0x03
  ca:	fc 01       	movw	r30, r24
  cc:	22 8b       	std	Z+18, r18	; 0x12
  ce:	8a 81       	ldd	r24, Y+2	; 0x02
  d0:	9b 81       	ldd	r25, Y+3	; 0x03
  d2:	29 81       	ldd	r18, Y+1	; 0x01
  d4:	fc 01       	movw	r30, r24
  d6:	20 83       	st	Z, r18
  d8:	8a 81       	ldd	r24, Y+2	; 0x02
  da:	9b 81       	ldd	r25, Y+3	; 0x03
  dc:	0e 94 00 00 	call	0	; 0x0 <__tmp_reg__>
  e0:	80 e0       	ldi	r24, 0x00	; 0
  e2:	0f 90       	pop	r0
  e4:	0f 90       	pop	r0
  e6:	0f 90       	pop	r0
  e8:	0f 90       	pop	r0
  ea:	df 91       	pop	r29
  ec:	cf 91       	pop	r28
  ee:	08 95       	ret

Disassembly of section .text.rbfs_umount:

00000166 <rbfs_umount>:
 166:	cf 93       	push	r28
 168:	df 93       	push	r29
 16a:	00 d0       	rcall	.+0      	; 0x16c <rbfs_umount+0x6>
 16c:	cd b7       	in	r28, 0x3d	; 61
 16e:	de b7       	in	r29, 0x3e	; 62
 170:	9a 83       	std	Y+2, r25	; 0x02
 172:	89 83       	std	Y+1, r24	; 0x01
 174:	89 81       	ldd	r24, Y+1	; 0x01
 176:	9a 81       	ldd	r25, Y+2	; 0x02
 178:	fc 01       	movw	r30, r24
 17a:	80 81       	ld	r24, Z
 17c:	0e 94 00 00 	call	0	; 0x0 <__tmp_reg__>
 180:	88 23       	and	r24, r24
 182:	01 f0       	breq	.+0      	; 0x184 <rbfs_umount+0x1e>
 184:	89 81       	ldd	r24, Y+1	; 0x01
 186:	9a 81       	ldd	r25, Y+2	; 0x02
 188:	fc 01       	movw	r30, r24
 18a:	80 81       	ld	r24, Z
 18c:	60 e0       	ldi	r22, 0x00	; 0
 18e:	0e 94 00 00 	call	0	; 0x0 <__tmp_reg__>
 192:	80 e0       	ldi	r24, 0x00	; 0
 194:	0f 90       	pop	r0
 196:	0f 90       	pop	r0
 198:	df 91       	pop	r29
 19a:	cf 91       	pop	r28
 19c:	08 95       	ret

Disassembly of section .text.rbfs_open:

00000304 <rbfs_open>:
 304:	0f 93       	push	r16
 306:	1f 93       	push	r17
 308:	cf 93       	push	r28
 30a:	df 93       	push	r29
 30c:	cd b7       	in	r28, 0x3d	; 61
 30e:	de b7       	in	r29, 0x3e	; 62
 310:	2b 97       	sbiw	r28, 0x0b	; 11
 312:	0f b6       	in	r0, 0x3f	; 63
 314:	f8 94       	cli
 316:	de bf       	out	0x3e, r29	; 62
 318:	0f be       	out	0x3f, r0	; 63
 31a:	cd bf       	out	0x3d, r28	; 61
 31c:	9f 83       	std	Y+7, r25	; 0x07
 31e:	8e 83       	std	Y+6, r24	; 0x06
 320:	68 87       	std	Y+8, r22	; 0x08
 322:	5a 87       	std	Y+10, r21	; 0x0a
 324:	49 87       	std	Y+9, r20	; 0x09
 326:	2b 87       	std	Y+11, r18	; 0x0b
 328:	8e 81       	ldd	r24, Y+6	; 0x06
 32a:	9f 81       	ldd	r25, Y+7	; 0x07
 32c:	fc 01       	movw	r30, r24
 32e:	80 81       	ld	r24, Z
 330:	0e 94 00 00 	call	0	; 0x0 <__tmp_reg__>
 334:	88 23       	and	r24, r24
 336:	01 f4       	brne	.+0      	; 0x338 <rbfs_open+0x34>
 338:	88 e0       	ldi	r24, 0x08	; 8
 33a:	00 c0       	rjmp	.+0      	; 0x33c <rbfs_open+0x38>
 33c:	88 85       	ldd	r24, Y+8	; 0x08
 33e:	8b 83       	std	Y+3, r24	; 0x03
 340:	8b 81       	ldd	r24, Y+3	; 0x03
 342:	48 2f       	mov	r20, r24
 344:	50 e0       	ldi	r21, 0x00	; 0
 346:	8e 81       	ldd	r24, Y+6	; 0x06
 348:	9f 81       	ldd	r25, Y+7	; 0x07
 34a:	fc 01       	movw	r30, r24
 34c:	83 85       	ldd	r24, Z+11	; 0x0b
 34e:	28 2f       	mov	r18, r24
 350:	30 e0       	ldi	r19, 0x00	; 0
 352:	42 9f       	mul	r20, r18
 354:	c0 01       	movw	r24, r0
 356:	43 9f       	mul	r20, r19
 358:	90 0d       	add	r25, r0
 35a:	52 9f       	mul	r21, r18
 35c:	90 0d       	add	r25, r0
 35e:	11 24       	eor	r1, r1
 360:	9c 01       	movw	r18, r24
 362:	8e 81       	ldd	r24, Y+6	; 0x06
 364:	9f 81       	ldd	r25, Y+7	; 0x07
 366:	fc 01       	movw	r30, r24
 368:	83 81       	ldd	r24, Z+3	; 0x03
 36a:	94 81       	ldd	r25, Z+4	; 0x04
 36c:	82 0f       	add	r24, r18
 36e:	93 1f       	adc	r25, r19
 370:	9d 83       	std	Y+5, r25	; 0x05
 372:	8c 83       	std	Y+4, r24	; 0x04
 374:	8c 81       	ldd	r24, Y+4	; 0x04
 376:	9d 81       	ldd	r25, Y+5	; 0x05
 378:	03 96       	adiw	r24, 0x03	; 3
 37a:	2e 81       	ldd	r18, Y+6	; 0x06
 37c:	3f 81       	ldd	r19, Y+7	; 0x07
 37e:	f9 01       	movw	r30, r18
 380:	20 81       	ld	r18, Z
 382:	bc 01       	movw	r22, r24
 384:	82 2f       	mov	r24, r18
 386:	0e 94 00 00 	call	0	; 0x0 <__tmp_reg__>
 38a:	8a 83       	std	Y+2, r24	; 0x02
 38c:	8a 81       	ldd	r24, Y+2	; 0x02
 38e:	88 2f       	mov	r24, r24
 390:	90 e0       	ldi	r25, 0x00	; 0
 392:	80 71       	andi	r24, 0x10	; 16
 394:	99 27       	eor	r25, r25
 396:	00 97       	sbiw	r24, 0x00	; 0
 398:	01 f4       	brne	.+0      	; 0x39a <rbfs_open+0x96>
 39a:	87 e0       	ldi	r24, 0x07	; 7
 39c:	00 c0       	rjmp	.+0      	; 0x39e <rbfs_open+0x9a>
 39e:	8a 81       	ldd	r24, Y+2	; 0x02
 3a0:	88 2f       	mov	r24, r24
 3a2:	90 e0       	ldi	r25, 0x00	; 0
 3a4:	81 70       	andi	r24, 0x01	; 1
 3a6:	99 27       	eor	r25, r25
 3a8:	00 97       	sbiw	r24, 0x00	; 0
 3aa:	01 f0       	breq	.+0      	; 0x3ac <rbfs_open+0xa8>
 3ac:	81 e0       	ldi	r24, 0x01	; 1
 3ae:	00 c0       	rjmp	.+0      	; 0x3b0 <rbfs_open+0xac>
 3b0:	8a 81       	ldd	r24, Y+2	; 0x02
 3b2:	81 60       	ori	r24, 0x01	; 1
 3b4:	8a 83       	std	Y+2, r24	; 0x02
 3b6:	8b 85       	ldd	r24, Y+11	; 0x0b
 3b8:	88 2f       	mov	r24, r24
 3ba:	90 e0       	ldi	r25, 0x00	; 0
 3bc:	81 70       	andi	r24, 0x01	; 1
 3be:	99 27       	eor	r25, r25
 3c0:	00 97       	sbiw	r24, 0x00	; 0
 3c2:	01 f4       	brne	.+0      	; 0x3c4 <rbfs_open+0xc0>
 3c4:	8e 81       	ldd	r24, Y+6	; 0x06
 3c6:	9f 81       	ldd	r25, Y+7	; 0x07
 3c8:	fc 01       	movw	r30, r24
 3ca:	82 89       	ldd	r24, Z+18	; 0x12
 3cc:	88 2f       	mov	r24, r24
 3ce:	90 e0       	ldi	r25, 0x00	; 0
 3d0:	82 70       	andi	r24, 0x02	; 2
 3d2:	99 27       	eor	r25, r25
 3d4:	00 97       	sbiw	r24, 0x00	; 0
 3d6:	01 f0       	breq	.+0      	; 0x3d8 <rbfs_open+0xd4>
 3d8:	8a 81       	ldd	r24, Y+2	; 0x02
 3da:	82 60       	ori	r24, 0x02	; 2
 3dc:	8a 83       	std	Y+2, r24	; 0x02
 3de:	8c 81       	ldd	r24, Y+4	; 0x04
 3e0:	9d 81       	ldd	r25, Y+5	; 0x05
 3e2:	03 96       	adiw	r24, 0x03	; 3
 3e4:	2e 81       	ldd	r18, Y+6	; 0x06
 3e6:	3f 81       	ldd	r19, Y+7	; 0x07
 3e8:	f9 01       	movw	r30, r18
 3ea:	20 81       	ld	r18, Z
 3ec:	4a 81       	ldd	r20, Y+2	; 0x02
 3ee:	bc 01       	movw	r22, r24
 3f0:	82 2f       	mov	r24, r18
 3f2:	0e 94 00 00 	call	0	; 0x0 <__tmp_reg__>
 3f6:	89 85       	ldd	r24, Y+9	; 0x09
 3f8:	9a 85       	ldd	r25, Y+10	; 0x0a
 3fa:	2b 81       	ldd	r18, Y+3	; 0x03
 3fc:	fc 01       	movw	r30, r24
 3fe:	20 83       	st	Z, r18
 400:	8c 81       	ldd	r24, Y+4	; 0x04
 402:	9d 81       	ldd	r25, Y+5	; 0x05
 404:	02 96       	adiw	r24, 0x02	; 2
 406:	2e 81       	ldd	r18, Y+6	; 0x06
 408:	3f 81       	ldd	r19, Y+7	; 0x07
 40a:	f9 01       	movw	r30, r18
 40c:	20 81       	ld	r18, Z
 40e:	bc 01       	movw	r22, r24
 410:	82 2f       	mov	r24, r18
 412:	0e 94 00 00 	call	0	; 0x0 <__tmp_reg__>
 416:	28 2f       	mov	r18, r24
 418:	89 85       	ldd	r24, Y+9	; 0x09
 41a:	9a 85       	ldd	r25, Y+10	; 0x0a
 41c:	fc 01       	movw	r30, r24
 41e:	21 83       	std	Z+1, r18	; 0x01
 420:	89 85       	ldd	r24, Y+9	; 0x09
 422:	9a 85       	ldd	r25, Y+10	; 0x0a
 424:	fc 01       	movw	r30, r24
 426:	21 81       	ldd	r18, Z+1	; 0x01
 428:	89 85       	ldd	r24, Y+9	; 0x09
 42a:	9a 85       	ldd	r25, Y+10	; 0x0a
 42c:	fc 01       	movw	r30, r24
 42e:	22 83       	std	Z+2, r18	; 0x02
 430:	8e 81       	ldd	r24, Y+6	; 0x06
 432:	9f 81       	ldd	r25, Y+7	; 0x07
 434:	fc 01       	movw	r30, r24
 436:	20 89       	ldd	r18, Z+16	; 0x10
 438:	89 85       	ldd	r24, Y+9	; 0x09
 43a:	9a 85       	ldd	r25, Y+10	; 0x0a
 43c:	fc 01       	movw	r30, r24
 43e:	23 83       	std	Z+3, r18	; 0x03
 440:	89 85       	ldd	r24, Y+9	; 0x09
 442:	9a 85       	ldd	r25, Y+10	; 0x0a
 444:	fc 01       	movw	r30, r24
 446:	17 82       	std	Z+7, r1	; 0x07
 448:	16 82       	std	Z+6, r1	; 0x06
 44a:	19 82       	std	Y+1, r1	; 0x01
 44c:	00 c0       	rjmp	.+0      	; 0x44e <rbfs_open+0x14a>
 44e:	89 85       	ldd	r24, Y+9	; 0x09
 450:	9a 85       	ldd	r25, Y+10	; 0x0a
 452:	9c 01       	movw	r18, r24
 454:	2c 5f       	subi	r18, 0xFC	; 252
 456:	3f 4f       	sbci	r19, 0xFF	; 255
 458:	89 81       	ldd	r24, Y+1	; 0x01
 45a:	88 2f       	mov	r24, r24
 45c:	90 e0       	ldi	r25, 0x00	; 0
 45e:	89 01       	movw	r16, r18
 460:	08 0f       	add	r16, r24
 462:	19 1f       	adc	r17, r25
 464:	89 81       	ldd	r24, Y+1	; 0x01
 466:	28 2f       	mov	r18, r24
 468:	30 e0       	ldi	r19, 0x00	; 0
 46a:	8c 81       	ldd	r24, Y+4	; 0x04
 46c:	9d 81       	ldd	r25, Y+5	; 0x05
 46e:	82 0f       	add	r24, r18
 470:	93 1f       	adc	r25, r19
 472:	2e 81       	ldd	r18, Y+6	; 0x06
 474:	3f 81       	ldd	r19, Y+7	; 0x07
 476:	f9 01       	movw	r30, r18
 478:	20 81       	ld	r18, Z
 47a:	bc 01       	movw	r22, r24
 47c:	82 2f       	mov	r24, r18
 47e:	0e 94 00 00 	call	0	; 0x0 <__tmp_reg__>
 482:	f8 01       	movw	r30, r16
 484:	80 83       	st	Z, r24
 486:	89 81       	ldd	r24, Y+1	; 0x01
 488:	8f 5f       	subi	r24, 0xFF	; 255
 48a:	89 83       	std	Y+1, r24	; 0x01
 48c:	89 81       	ldd	r24, Y+1	; 0x01
 48e:	82 30       	cpi	r24, 0x02	; 2
 490:	00 f0       	brcs	.+0      	; 0x492 <rbfs_open+0x18e>
 492:	89 85       	ldd	r24, Y+9	; 0x09
 494:	9a 85       	ldd	r25, Y+10	; 0x0a
 496:	2a 81       	ldd	r18, Y+2	; 0x02
 498:	fc 01       	movw	r30, r24
 49a:	20 87       	std	Z+8, r18	; 0x08
 49c:	89 85       	ldd	r24, Y+9	; 0x09
 49e:	9a 85       	ldd	r25, Y+10	; 0x0a
 4a0:	0e 94 00 00 	call	0	; 0x0 <__tmp_reg__>
 4a4:	80 e0       	ldi	r24, 0x00	; 0
 4a6:	2b 96       	adiw	r28, 0x0b	; 11
 4a8:	0f b6       	in	r0, 0x3f	; 63
 4aa:	f8 94       	cli
 4ac:	de bf       	out	0x3e, r29	; 62
 4ae:	0f be       	out	0x3f, r0	; 63
 4b0:	cd bf       	out	0x3d, r28	; 61
 4b2:	df 91       	pop	r29
 4b4:	cf 91       	pop	r28
 4b6:	1f 91       	pop	r17
 4b8:	0f 91       	pop	r16
 4ba:	08 95       	ret

Disassembly of section .text.rbfs_close:

000007c0 <rbfs_close>:
 7c0:	cf 93       	push	r28
 7c2:	df 93       	push	r29
 7c4:	00 d0       	rcall	.+0      	; 0x7c6 <rbfs_close+0x6>
 7c6:	00 d0       	rcall	.+0      	; 0x7c8 <rbfs_close+0x8>
 7c8:	cd b7       	in	r28, 0x3d	; 61
 7ca:	de b7       	in	r29, 0x3e	; 62
 7cc:	9a 83       	std	Y+2, r25	; 0x02
 7ce:	89 83       	std	Y+1, r24	; 0x01
 7d0:	7c 83       	std	Y+4, r23	; 0x04
 7d2:	6b 83       	std	Y+3, r22	; 0x03
 7d4:	2b 81       	ldd	r18, Y+3	; 0x03
 7d6:	3c 81       	ldd	r19, Y+4	; 0x04
 7d8:	89 81       	ldd	r24, Y+1	; 0x01
 7da:	9a 81       	ldd	r25, Y+2	; 0x02
 7dc:	b9 01       	movw	r22, r18
 7de:	0e 94 00 00 	call	0	; 0x0 <__tmp_reg__>
 7e2:	8b 81       	ldd	r24, Y+3	; 0x03
 7e4:	9c 81       	ldd	r25, Y+4	; 0x04
 7e6:	fc 01       	movw	r30, r24
 7e8:	20 81       	ld	r18, Z
 7ea:	89 81       	ldd	r24, Y+1	; 0x01
 7ec:	9a 81       	ldd	r25, Y+2	; 0x02
 7ee:	62 2f       	mov	r22, r18
 7f0:	0e 94 00 00 	call	0	; 0x0 <__tmp_reg__>
 7f4:	8b 81       	ldd	r24, Y+3	; 0x03
 7f6:	9c 81       	ldd	r25, Y+4	; 0x04
 7f8:	2e ef       	ldi	r18, 0xFE	; 254
 7fa:	fc 01       	movw	r30, r24
 7fc:	20 87       	std	Z+8, r18	; 0x08
 7fe:	80 e0       	ldi	r24, 0x00	; 0
 800:	0f 90       	pop	r0
 802:	0f 90       	pop	r0
 804:	0f 90       	pop	r0
 806:	0f 90       	pop	r0
 808:	df 91       	pop	r29
 80a:	cf 91       	pop	r28
 80c:	08 95       	ret

Disassembly of section .text.rbfs_read:

00000fce <rbfs_read>:
     fce:	cf 93       	push	r28
     fd0:	df 93       	push	r29
     fd2:	cd b7       	in	r28, 0x3d	; 61
     fd4:	de b7       	in	r29, 0x3e	; 62
     fd6:	27 97       	sbiw	r28, 0x07	; 7
     fd8:	0f b6       	in	r0, 0x3f	; 63
     fda:	f8 94       	cli
     fdc:	de bf       	out	0x3e, r29	; 62
     fde:	0f be       	out	0x3f, r0	; 63
     fe0:	cd bf       	out	0x3d, r28	; 61
     fe2:	9d 83       	std	Y+5, r25	; 0x05
     fe4:	8c 83       	std	Y+4, r24	; 0x04
     fe6:	7f 83       	std	Y+7, r23	; 0x07
     fe8:	6e 83       	std	Y+6, r22	; 0x06
     fea:	8e 81       	ldd	r24, Y+6	; 0x06
     fec:	9f 81       	ldd	r25, Y+7	; 0x07
     fee:	fc 01       	movw	r30, r24
     ff0:	80 85       	ldd	r24, Z+8	; 0x08
     ff2:	88 2f       	mov	r24, r24
     ff4:	90 e0       	ldi	r25, 0x00	; 0
     ff6:	81 70       	andi	r24, 0x01	; 1
     ff8:	99 27       	eor	r25, r25
     ffa:	00 97       	sbiw	r24, 0x00	; 0
     ffc:	01 f4       	brne	.+0      	; 0xffe <rbfs_read+0x30>
     ffe:	8e 81       	ldd	r24, Y+6	; 0x06
    1000:	9f 81       	ldd	r25, Y+7	; 0x07
    1002:	fc 01       	movw	r30, r24
    1004:	80 85       	ldd	r24, Z+8	; 0x08
    1006:	28 2f       	mov	r18, r24
    1008:	24 60       	ori	r18, 0x04	; 4
    100a:	8e 81       	ldd	r24, Y+6	; 0x06
    100c:	9f 81       	ldd	r25, Y+7	; 0x07
    100e:	fc 01       	movw	r30, r24
    1010:	20 87       	std	Z+8, r18	; 0x08
    1012:	80 e0       	ldi	r24, 0x00	; 0
    1014:	00 c0       	rjmp	.+0      	; 0x1016 <rbfs_read+0x48>
    1016:	8e 81       	ldd	r24, Y+6	; 0x06
    1018:	9f 81       	ldd	r25, Y+7	; 0x07
    101a:	0e 94 00 00 	call	0	; 0x0 <__tmp_reg__>
    101e:	88 23       	and	r24, r24
    1020:	01 f0       	breq	.+0      	; 0x1022 <rbfs_read+0x54>
    1022:	80 e0       	ldi	r24, 0x00	; 0
    1024:	00 c0       	rjmp	.+0      	; 0x1026 <rbfs_read+0x58>
    1026:	2e 81       	ldd	r18, Y+6	; 0x06
    1028:	3f 81       	ldd	r19, Y+7	; 0x07
    102a:	8c 81       	ldd	r24, Y+4	; 0x04
    102c:	9d 81       	ldd	r25, Y+5	; 0x05
    102e:	b9 01       	movw	r22, r18
    1030:	0e 94 00 00 	call	0	; 0x0 <__tmp_reg__>
    1034:	8c 81       	ldd	r24, Y+4	; 0x04
    1036:	9d 81       	ldd	r25, Y+5	; 0x05
    1038:	fc 01       	movw	r30, r24
    103a:	25 81       	ldd	r18, Z+5	; 0x05
    103c:	36 81       	ldd	r19, Z+6	; 0x06
    103e:	8e 81       	ldd	r24, Y+6	; 0x06
    1040:	9f 81       	ldd	r25, Y+7	; 0x07
    1042:	fc 01       	movw	r30, r24
    1044:	82 81       	ldd	r24, Z+2	; 0x02
    1046:	68 2f       	mov	r22, r24
    1048:	70 e0       	ldi	r23, 0x00	; 0
    104a:	8c 81       	ldd	r24, Y+4	; 0x04
    104c:	9d 81       	ldd	r25, Y+5	; 0x05
    104e:	fc 01       	movw	r30, r24
    1050:	84 85       	ldd	r24, Z+12	; 0x0c
    1052:	48 2f       	mov	r20, r24
    1054:	50 e0       	ldi	r21, 0x00	; 0
    1056:	64 9f       	mul	r22, r20
    1058:	c0 01       	movw	r24, r0
    105a:	65 9f       	mul	r22, r21
    105c:	90 0d       	add	r25, r0
    105e:	74 9f       	mul	r23, r20
    1060:	90 0d       	add	r25, r0
    1062:	11 24       	eor	r1, r1
    1064:	82 0f       	add	r24, r18
    1066:	93 1f       	adc	r25, r19
    1068:	9a 83       	std	Y+2, r25	; 0x02
    106a:	89 83       	std	Y+1, r24	; 0x01
    106c:	8e 81       	ldd	r24, Y+6	; 0x06
    106e:	9f 81       	ldd	r25, Y+7	; 0x07
    1070:	fc 01       	movw	r30, r24
    1072:	83 81       	ldd	r24, Z+3	; 0x03
    1074:	28 2f       	mov	r18, r24
    1076:	30 e0       	ldi	r19, 0x00	; 0
    1078:	89 81       	ldd	r24, Y+1	; 0x01
    107a:	9a 81       	ldd	r25, Y+2	; 0x02
    107c:	82 0f       	add	r24, r18
    107e:	93 1f       	adc	r25, r19
    1080:	2c 81       	ldd	r18, Y+4	; 0x04
    1082:	3d 81       	ldd	r19, Y+5	; 0x05
    1084:	f9 01       	movw	r30, r18
    1086:	20 81       	ld	r18, Z
    1088:	bc 01       	movw	r22, r24
    108a:	82 2f       	mov	r24, r18
    108c:	0e 94 00 00 	call	0	; 0x0 <__tmp_reg__>
    1090:	8b 83       	std	Y+3, r24	; 0x03
    1092:	8e 81       	ldd	r24, Y+6	; 0x06
    1094:	9f 81       	ldd	r25, Y+7	; 0x07
    1096:	fc 01       	movw	r30, r24
    1098:	86 81       	ldd	r24, Z+6	; 0x06
    109a:	97 81       	ldd	r25, Z+7	; 0x07
    109c:	9c 01       	movw	r18, r24
    109e:	2f 5f       	subi	r18, 0xFF	; 255
    10a0:	3f 4f       	sbci	r19, 0xFF	; 255
    10a2:	8e 81       	ldd	r24, Y+6	; 0x06
    10a4:	9f 81       	ldd	r25, Y+7	; 0x07
    10a6:	fc 01       	movw	r30, r24
    10a8:	37 83       	std	Z+7, r19	; 0x07
    10aa:	26 83       	std	Z+6, r18	; 0x06
    10ac:	8e 81       	ldd	r24, Y+6	; 0x06
    10ae:	9f 81       	ldd	r25, Y+7	; 0x07
    10b0:	fc 01       	movw	r30, r24
    10b2:	83 81       	ldd	r24, Z+3	; 0x03
    10b4:	21 e0       	ldi	r18, 0x01	; 1
    10b6:	28 0f       	add	r18, r24
    10b8:	8e 81       	ldd	r24, Y+6	; 0x06
    10ba:	9f 81       	ldd	r25, Y+7	; 0x07
    10bc:	fc 01       	movw	r30, r24
    10be:	23 83       	std	Z+3, r18	; 0x03
    10c0:	8e 81       	ldd	r24, Y+6	; 0x06
    10c2:	9f 81       	ldd	r25, Y+7	; 0x07
    10c4:	0e 94 00 00 	call	0	; 0x0 <__tmp_reg__>
    10c8:	8b 81       	ldd	r24, Y+3	; 0x03
    10ca:	27 96       	adiw	r28, 0x07	; 7
    10cc:	0f b6       	in	r0, 0x3f	; 63
    10ce:	f8 94       	cli
    10d0:	de bf       	out	0x3e, r29	; 62
    10d2:	0f be       	out	0x3f, r0	; 63
    10d4:	cd bf       	out	0x3d, r28	; 61
    10d6:	df 91       	pop	r29
    10d8:	cf 91       	pop	r28
    10da:	08 95       	ret

Disassembly of section .text.rbfs_write:

000020aa <rbfs_write>:
    20aa:	cf 93       	push	r28
    20ac:	df 93       	push	r29
    20ae:	cd b7       	in	r28, 0x3d	; 61
    20b0:	de b7       	in	r29, 0x3e	; 62
    20b2:	27 97       	sbiw	r28, 0x07	; 7
    20b4:	0f b6       	in	r0, 0x3f	; 63
    20b6:	f8 94       	cli
    20b8:	de bf       	out	0x3e, r29	; 62
    20ba:	0f be       	out	0x3f, r0	; 63
    20bc:	cd bf       	out	0x3d, r28	; 61
    20be:	9c 83       	std	Y+4, r25	; 0x04
    20c0:	8b 83       	std	Y+3, r24	; 0x03
    20c2:	7e 83       	std	Y+6, r23	; 0x06
    20c4:	6d 83       	std	Y+5, r22	; 0x05
    20c6:	4f 83       	std	Y+7, r20	; 0x07
    20c8:	8d 81       	ldd	r24, Y+5	; 0x05
    20ca:	9e 81       	ldd	r25, Y+6	; 0x06
    20cc:	fc 01       	movw	r30, r24
    20ce:	80 85       	ldd	r24, Z+8	; 0x08
    20d0:	88 2f       	mov	r24, r24
    20d2:	90 e0       	ldi	r25, 0x00	; 0
    20d4:	81 70       	andi	r24, 0x01	; 1
    20d6:	99 27       	eor	r25, r25
    20d8:	00 97       	sbiw	r24, 0x00	; 0
    20da:	01 f4       	brne	.+0      	; 0x20dc <rbfs_write+0x32>
    20dc:	82 e0       	ldi	r24, 0x02	; 2
    20de:	00 c0       	rjmp	.+0      	; 0x20e0 <rbfs_write+0x36>
    20e0:	8d 81       	ldd	r24, Y+5	; 0x05
    20e2:	9e 81       	ldd	r25, Y+6	; 0x06
    20e4:	fc 01       	movw	r30, r24
    20e6:	80 85       	ldd	r24, Z+8	; 0x08
    20e8:	88 2f       	mov	r24, r24
    20ea:	90 e0       	ldi	r25, 0x00	; 0
    20ec:	82 70       	andi	r24, 0x02	; 2
    20ee:	99 27       	eor	r25, r25
    20f0:	00 97       	sbiw	r24, 0x00	; 0
    20f2:	01 f0       	breq	.+0      	; 0x20f4 <rbfs_write+0x4a>
    20f4:	83 e0       	ldi	r24, 0x03	; 3
    20f6:	00 c0       	rjmp	.+0      	; 0x20f8 <rbfs_write+0x4e>
    20f8:	2d 81       	ldd	r18, Y+5	; 0x05
    20fa:	3e 81       	ldd	r19, Y+6	; 0x06
    20fc:	8b 81       	ldd	r24, Y+3	; 0x03
    20fe:	9c 81       	ldd	r25, Y+4	; 0x04
    2100:	b9 01       	movw	r22, r18
    2102:	0e 94 00 00 	call	0	; 0x0 <__tmp_reg__>
    2106:	88 23       	and	r24, r24
    2108:	01 f4       	brne	.+0      	; 0x210a <rbfs_write+0x60>
    210a:	84 e0       	ldi	r24, 0x04	; 4
    210c:	00 c0       	rjmp	.+0      	; 0x210e <rbfs_write+0x64>
    210e:	8b 81       	ldd	r24, Y+3	; 0x03
    2110:	9c 81       	ldd	r25, Y+4	; 0x04
    2112:	fc 01       	movw	r30, r24
    2114:	25 81       	ldd	r18, Z+5	; 0x05
    2116:	36 81       	ldd	r19, Z+6	; 0x06
    2118:	8d 81       	ldd	r24, Y+5	; 0x05
    211a:	9e 81       	ldd	r25, Y+6	; 0x06
    211c:	fc 01       	movw	r30, r24
    211e:	82 81       	ldd	r24, Z+2	; 0x02
    2120:	68 2f       	mov	r22, r24
    2122:	70 e0       	ldi	r23, 0x00	; 0
    2124:	8b 81       	ldd	r24, Y+3	; 0x03
    2126:	9c 81       	ldd	r25, Y+4	; 0x04
    2128:	fc 01       	movw	r30, r24
    212a:	84 85       	ldd	r24, Z+12	; 0x0c
    212c:	48 2f       	mov	r20, r24
    212e:	50 e0       	ldi	r21, 0x00	; 0
    2130:	64 9f       	mul	r22, r20
    2132:	c0 01       	movw	r24, r0
    2134:	65 9f       	mul	r22, r21
    2136:	90 0d       	add	r25, r0
    2138:	74 9f       	mul	r23, r20
    213a:	90 0d       	add	r25, r0
    213c:	11 24       	eor	r1, r1
    213e:	82 0f       	add	r24, r18
    2140:	93 1f       	adc	r25, r19
    2142:	9a 83       	std	Y+2, r25	; 0x02
    2144:	89 83       	std	Y+1, r24	; 0x01
    2146:	8d 81       	ldd	r24, Y+5	; 0x05
    2148:	9e 81       	ldd	r25, Y+6	; 0x06
    214a:	fc 01       	movw	r30, r24
    214c:	83 81       	ldd	r24, Z+3	; 0x03
    214e:	28 2f       	mov	r18, r24
    2150:	30 e0       	ldi	r19, 0x00	; 0
    2152:	89 81       	ldd	r24, Y+1	; 0x01
    2154:	9a 81       	ldd	r25, Y+2	; 0x02
    2156:	82 0f       	add	r24, r18
    2158:	93 1f       	adc	r25, r19
    215a:	2b 81       	ldd	r18, Y+3	; 0x03
    215c:	3c 81       	ldd	r19, Y+4	; 0x04
    215e:	f9 01       	movw	r30, r18
    2160:	20 81       	ld	r18, Z
    2162:	4f 81       	ldd	r20, Y+7	; 0x07
    2164:	bc 01       	movw	r22, r24
    2166:	82 2f       	mov	r24, r18
    2168:	0e 94 00 00 	call	0	; 0x0 <__tmp_reg__>
    216c:	8d 81       	ldd	r24, Y+5	; 0x05
    216e:	9e 81       	ldd	r25, Y+6	; 0x06
    2170:	fc 01       	movw	r30, r24
    2172:	83 81       	ldd	r24, Z+3	; 0x03
    2174:	21 e0       	ldi	r18, 0x01	; 1
    2176:	28 0f       	add	r18, r24
    2178:	8d 81       	ldd	r24, Y+5	; 0x05
    217a:	9e 81       	ldd	r25, Y+6	; 0x06
    217c:	fc 01       	movw	r30, r24
    217e:	23 83       	std	Z+3, r18	; 0x03
    2180:	8d 81       	ldd	r24, Y+5	; 0x05
    2182:	9e 81       	ldd	r25, Y+6	; 0x06
    2184:	fc 01       	movw	r30, r24
    2186:	86 81       	ldd	r24, Z+6	; 0x06
    2188:	97 81       	ldd	r25, Z+7	; 0x07
    218a:	9c 01       	movw	r18, r24
    218c:	2f 5f       	subi	r18, 0xFF	; 255
    218e:	3f 4f       	sbci	r19, 0xFF	; 255
    2190:	8d 81       	ldd	r24, Y+5	; 0x05
    2192:	9e 81       	ldd	r25, Y+6	; 0x06
    2194:	fc 01       	movw	r30, r24
    2196:	37 83       	std	Z+7, r19	; 0x07
    2198:	26 83       	std	Z+6, r18	; 0x06
    219a:	8d 81       	ldd	r24, Y+5	; 0x05
    219c:	9e 81       	ldd	r25, Y+6	; 0x06
    219e:	0e 94 00 00 	call	0	; 0x0 <__tmp_reg__>
    21a2:	88 23       	and	r24, r24
    21a4:	01 f0       	breq	.+0      	; 0x21a6 <rbfs_write+0xfc>
    21a6:	8d 81       	ldd	r24, Y+5	; 0x05
    21a8:	9e 81       	ldd	r25, Y+6	; 0x06
    21aa:	fc 01       	movw	r30, r24
    21ac:	84 81       	ldd	r24, Z+4	; 0x04
    21ae:	95 81       	ldd	r25, Z+5	; 0x05
    21b0:	9c 01       	movw	r18, r24
    21b2:	2f 5f       	subi	r18, 0xFF	; 255
    21b4:	3f 4f       	sbci	r19, 0xFF	; 255
    21b6:	8d 81       	ldd	r24, Y+5	; 0x05
    21b8:	9e 81       	ldd	r25, Y+6	; 0x06
    21ba:	fc 01       	movw	r30, r24
    21bc:	35 83       	std	Z+5, r19	; 0x05
    21be:	24 83       	std	Z+4, r18	; 0x04
    21c0:	2d 81       	ldd	r18, Y+5	; 0x05
    21c2:	3e 81       	ldd	r19, Y+6	; 0x06
    21c4:	8b 81       	ldd	r24, Y+3	; 0x03
    21c6:	9c 81       	ldd	r25, Y+4	; 0x04
    21c8:	b9 01       	movw	r22, r18
    21ca:	0e 94 00 00 	call	0	; 0x0 <__tmp_reg__>
    21ce:	80 e0       	ldi	r24, 0x00	; 0
    21d0:	27 96       	adiw	r28, 0x07	; 7
    21d2:	0f b6       	in	r0, 0x3f	; 63
    21d4:	f8 94       	cli
    21d6:	de bf       	out	0x3e, r29	; 62
    21d8:	0f be       	out	0x3f, r0	; 63
    21da:	cd bf       	out	0x3d, r28	; 61
    21dc:	df 91       	pop	r29
    21de:	cf 91       	pop	r28
    21e0:	08 95       	ret

Disassembly of section .text.rbfs_seek:

0000428c <rbfs_seek>:
    428c:	cf 93       	push	r28
    428e:	df 93       	push	r29
    4290:	cd b7       	in	r28, 0x3d	; 61
    4292:	de b7       	in	r29, 0x3e	; 62
    4294:	2b 97       	sbiw	r28, 0x0b	; 11
    4296:	0f b6       	in	r0, 0x3f	; 63
    4298:	f8 94       	cli
    429a:	de bf       	out	0x3e, r29	; 62
    429c:	0f be       	out	0x3f, r0	; 63
    429e:	cd bf       	out	0x3d, r28	; 61
    42a0:	9c 83       	std	Y+4, r25	; 0x04
    42a2:	8b 83       	std	Y+3, r24	; 0x03
    42a4:	7e 83       	std	Y+6, r23	; 0x06
    42a6:	6d 83       	std	Y+5, r22	; 0x05
    42a8:	4f 83       	std	Y+7, r20	; 0x07
    42aa:	39 87       	std	Y+9, r19	; 0x09
    42ac:	28 87       	std	Y+8, r18	; 0x08
    42ae:	1a 82       	std	Y+2, r1	; 0x02
    42b0:	19 82       	std	Y+1, r1	; 0x01
    42b2:	8d 81       	ldd	r24, Y+5	; 0x05
    42b4:	9e 81       	ldd	r25, Y+6	; 0x06
    42b6:	fc 01       	movw	r30, r24
    42b8:	84 81       	ldd	r24, Z+4	; 0x04
    42ba:	95 81       	ldd	r25, Z+5	; 0x05
    42bc:	00 97       	sbiw	r24, 0x00	; 0
    42be:	01 f4       	brne	.+0      	; 0x42c0 <rbfs_seek+0x34>
    42c0:	80 e0       	ldi	r24, 0x00	; 0
    42c2:	00 c0       	rjmp	.+0      	; 0x42c4 <rbfs_seek+0x38>
    42c4:	8f 81       	ldd	r24, Y+7	; 0x07
    42c6:	88 2f       	mov	r24, r24
    42c8:	90 e0       	ldi	r25, 0x00	; 0
    42ca:	00 97       	sbiw	r24, 0x00	; 0
    42cc:	01 f0       	breq	.+0      	; 0x42ce <rbfs_seek+0x42>
    42ce:	81 30       	cpi	r24, 0x01	; 1
    42d0:	91 05       	cpc	r25, r1
    42d2:	01 f0       	breq	.+0      	; 0x42d4 <rbfs_seek+0x48>
    42d4:	00 c0       	rjmp	.+0      	; 0x42d6 <rbfs_seek+0x4a>
    42d6:	88 85       	ldd	r24, Y+8	; 0x08
    42d8:	99 85       	ldd	r25, Y+9	; 0x09
    42da:	9a 83       	std	Y+2, r25	; 0x02
    42dc:	89 83       	std	Y+1, r24	; 0x01
    42de:	00 c0       	rjmp	.+0      	; 0x42e0 <rbfs_seek+0x54>
    42e0:	8d 81       	ldd	r24, Y+5	; 0x05
    42e2:	9e 81       	ldd	r25, Y+6	; 0x06
    42e4:	fc 01       	movw	r30, r24
    42e6:	26 81       	ldd	r18, Z+6	; 0x06
    42e8:	37 81       	ldd	r19, Z+7	; 0x07
    42ea:	88 85       	ldd	r24, Y+8	; 0x08
    42ec:	99 85       	ldd	r25, Y+9	; 0x09
    42ee:	82 0f       	add	r24, r18
    42f0:	93 1f       	adc	r25, r19
    42f2:	9a 83       	std	Y+2, r25	; 0x02
    42f4:	89 83       	std	Y+1, r24	; 0x01
    42f6:	00 00       	nop
    42f8:	89 81       	ldd	r24, Y+1	; 0x01
    42fa:	9a 81       	ldd	r25, Y+2	; 0x02
    42fc:	2d 81       	ldd	r18, Y+5	; 0x05
    42fe:	3e 81       	ldd	r19, Y+6	; 0x06
    4300:	f9 01       	movw	r30, r18
    4302:	24 81       	ldd	r18, Z+4	; 0x04
    4304:	35 81       	ldd	r19, Z+5	; 0x05
    4306:	2f 5f       	subi	r18, 0xFF	; 255
    4308:	3f 4f       	sbci	r19, 0xFF	; 255
    430a:	b9 01       	movw	r22, r18
    430c:	0e 94 00 00 	call	0	; 0x0 <__tmp_reg__>
    4310:	9a 83       	std	Y+2, r25	; 0x02
    4312:	89 83       	std	Y+1, r24	; 0x01
    4314:	89 81       	ldd	r24, Y+1	; 0x01
    4316:	9a 81       	ldd	r25, Y+2	; 0x02
    4318:	99 23       	and	r25, r25
    431a:	04 f4       	brge	.+0      	; 0x431c <rbfs_seek+0x90>
    431c:	8d 81       	ldd	r24, Y+5	; 0x05
    431e:	9e 81       	ldd	r25, Y+6	; 0x06
    4320:	fc 01       	movw	r30, r24
    4322:	24 81       	ldd	r18, Z+4	; 0x04
    4324:	35 81       	ldd	r19, Z+5	; 0x05
    4326:	89 81       	ldd	r24, Y+1	; 0x01
    4328:	9a 81       	ldd	r25, Y+2	; 0x02
    432a:	82 0f       	add	r24, r18
    432c:	93 1f       	adc	r25, r19
    432e:	9a 83       	std	Y+2, r25	; 0x02
    4330:	89 83       	std	Y+1, r24	; 0x01
    4332:	89 81       	ldd	r24, Y+1	; 0x01
    4334:	9a 81       	ldd	r25, Y+2	; 0x02
    4336:	00 97       	sbiw	r24, 0x00	; 0
    4338:	01 f4       	brne	.+0      	; 0x433a <rbfs_seek+0xae>
    433a:	2d 81       	ldd	r18, Y+5	; 0x05
    433c:	3e 81       	ldd	r19, Y+6	; 0x06
    433e:	8b 81       	ldd	r24, Y+3	; 0x03
    4340:	9c 81       	ldd	r25, Y+4	; 0x04
    4342:	b9 01       	movw	r22, r18
    4344:	0e 94 00 00 	call	0	; 0x0 <__tmp_reg__>
    4348:	80 e0       	ldi	r24, 0x00	; 0
    434a:	00 c0       	rjmp	.+0      	; 0x434c <rbfs_seek+0xc0>
    434c:	29 81       	ldd	r18, Y+1	; 0x01
    434e:	3a 81       	ldd	r19, Y+2	; 0x02
    4350:	8d 81       	ldd	r24, Y+5	; 0x05
    4352:	9e 81       	ldd	r25, Y+6	; 0x06
    4354:	fc 01       	movw	r30, r24
    4356:	86 81       	ldd	r24, Z+6	; 0x06
    4358:	97 81       	ldd	r25, Z+7	; 0x07
    435a:	28 17       	cp	r18, r24
    435c:	39 07       	cpc	r19, r25
    435e:	00 f4       	brcc	.+0      	; 0x4360 <rbfs_seek+0xd4>
    4360:	29 81       	ldd	r18, Y+1	; 0x01
    4362:	3a 81       	ldd	r19, Y+2	; 0x02
    4364:	8d 81       	ldd	r24, Y+5	; 0x05
    4366:	9e 81       	ldd	r25, Y+6	; 0x06
    4368:	fc 01       	movw	r30, r24
    436a:	46 81       	ldd	r20, Z+6	; 0x06
    436c:	57 81       	ldd	r21, Z+7	; 0x07
    436e:	89 81       	ldd	r24, Y+1	; 0x01
    4370:	9a 81       	ldd	r25, Y+2	; 0x02
    4372:	ba 01       	movw	r22, r20
    4374:	68 1b       	sub	r22, r24
    4376:	79 0b       	sbc	r23, r25
    4378:	cb 01       	movw	r24, r22
    437a:	82 17       	cp	r24, r18
    437c:	93 07       	cpc	r25, r19
    437e:	00 f4       	brcc	.+0      	; 0x4380 <rbfs_seek+0xf4>
    4380:	8d 81       	ldd	r24, Y+5	; 0x05
    4382:	9e 81       	ldd	r25, Y+6	; 0x06
    4384:	fc 01       	movw	r30, r24
    4386:	26 81       	ldd	r18, Z+6	; 0x06
    4388:	37 81       	ldd	r19, Z+7	; 0x07
    438a:	89 81       	ldd	r24, Y+1	; 0x01
    438c:	9a 81       	ldd	r25, Y+2	; 0x02
    438e:	a9 01       	movw	r20, r18
    4390:	48 1b       	sub	r20, r24
    4392:	59 0b       	sbc	r21, r25
    4394:	2d 81       	ldd	r18, Y+5	; 0x05
    4396:	3e 81       	ldd	r19, Y+6	; 0x06
    4398:	8b 81       	ldd	r24, Y+3	; 0x03
    439a:	9c 81       	ldd	r25, Y+4	; 0x04
    439c:	b9 01       	movw	r22, r18
    439e:	0e 94 00 00 	call	0	; 0x0 <__tmp_reg__>
    43a2:	00 c0       	rjmp	.+0      	; 0x43a4 <rbfs_seek+0x118>
    43a4:	2d 81       	ldd	r18, Y+5	; 0x05
    43a6:	3e 81       	ldd	r19, Y+6	; 0x06
    43a8:	8b 81       	ldd	r24, Y+3	; 0x03
    43aa:	9c 81       	ldd	r25, Y+4	; 0x04
    43ac:	b9 01       	movw	r22, r18
    43ae:	0e 94 00 00 	call	0	; 0x0 <__tmp_reg__>
    43b2:	49 81       	ldd	r20, Y+1	; 0x01
    43b4:	5a 81       	ldd	r21, Y+2	; 0x02
    43b6:	2d 81       	ldd	r18, Y+5	; 0x05
    43b8:	3e 81       	ldd	r19, Y+6	; 0x06
    43ba:	8b 81       	ldd	r24, Y+3	; 0x03
    43bc:	9c 81       	ldd	r25, Y+4	; 0x04
    43be:	b9 01       	movw	r22, r18
    43c0:	0e 94 00 00 	call	0	; 0x0 <__tmp_reg__>
    43c4:	00 c0       	rjmp	.+0      	; 0x43c6 <rbfs_seek+0x13a>
    43c6:	29 81       	ldd	r18, Y+1	; 0x01
    43c8:	3a 81       	ldd	r19, Y+2	; 0x02
    43ca:	8d 81       	ldd	r24, Y+5	; 0x05
    43cc:	9e 81       	ldd	r25, Y+6	; 0x06
    43ce:	fc 01       	movw	r30, r24
    43d0:	86 81       	ldd	r24, Z+6	; 0x06
    43d2:	97 81       	ldd	r25, Z+7	; 0x07
    43d4:	a9 01       	movw	r20, r18
    43d6:	48 1b       	sub	r20, r24
    43d8:	59 0b       	sbc	r21, r25
    43da:	2d 81       	ldd	r18, Y+5	; 0x05
    43dc:	3e 81       	ldd	r19, Y+6	; 0x06
    43de:	8b 81       	ldd	r24, Y+3	; 0x03
    43e0:	9c 81       	ldd	r25, Y+4	; 0x04
    43e2:	b9 01       	movw	r22, r18
    43e4:	0e 94 00 00 	call	0	; 0x0 <__tmp_reg__>
    43e8:	8d 81       	ldd	r24, Y+5	; 0x05
    43ea:	9e 81       	ldd	r25, Y+6	; 0x06
    43ec:	0e 94 00 00 	call	0	; 0x0 <__tmp_reg__>
    43f0:	80 e0       	ldi	r24, 0x00	; 0
    43f2:	2b 96       	adiw	r28, 0x0b	; 11
    43f4:	0f b6       	in	r0, 0x3f	; 63
    43f6:	f8 94       	cli
    43f8:	de bf       	out	0x3e, r29	; 62
    43fa:	0f be       	out	0x3f, r0	; 63
    43fc:	cd bf       	out	0x3d, r28	; 61
    43fe:	df 91       	pop	r29
    4400:	cf 91       	pop	r28
    4402:	08 95       	ret

Disassembly of section .text.rbfs_truncate:

00008690 <rbfs_truncate>:
    8690:	cf 93       	push	r28
    8692:	df 93       	push	r29
    8694:	cd b7       	in	r28, 0x3d	; 61
    8696:	de b7       	in	r29, 0x3e	; 62
    8698:	28 97       	sbiw	r28, 0x08	; 8
    869a:	0f b6       	in	r0, 0x3f	; 63
    869c:	f8 94       	cli
    869e:	de bf       	out	0x3e, r29	; 62
    86a0:	0f be       	out	0x3f, r0	; 63
    86a2:	cd bf       	out	0x3d, r28	; 61
    86a4:	9e 83       	std	Y+6, r25	; 0x06
    86a6:	8d 83       	std	Y+5, r24	; 0x05
    86a8:	78 87       	std	Y+8, r23	; 0x08
    86aa:	6f 83       	std	Y+7, r22	; 0x07
    86ac:	19 82       	std	Y+1, r1	; 0x01
    86ae:	8f 81       	ldd	r24, Y+7	; 0x07
    86b0:	98 85       	ldd	r25, Y+8	; 0x08
    86b2:	fc 01       	movw	r30, r24
    86b4:	80 81       	ld	r24, Z
    86b6:	48 2f       	mov	r20, r24
    86b8:	50 e0       	ldi	r21, 0x00	; 0
    86ba:	8d 81       	ldd	r24, Y+5	; 0x05
    86bc:	9e 81       	ldd	r25, Y+6	; 0x06
    86be:	fc 01       	movw	r30, r24
    86c0:	83 85       	ldd	r24, Z+11	; 0x0b
    86c2:	28 2f       	mov	r18, r24
    86c4:	30 e0       	ldi	r19, 0x00	; 0
    86c6:	42 9f       	mul	r20, r18
    86c8:	c0 01       	movw	r24, r0
    86ca:	43 9f       	mul	r20, r19
    86cc:	90 0d       	add	r25, r0
    86ce:	52 9f       	mul	r21, r18
    86d0:	90 0d       	add	r25, r0
    86d2:	11 24       	eor	r1, r1
    86d4:	9c 01       	movw	r18, r24
    86d6:	8d 81       	ldd	r24, Y+5	; 0x05
    86d8:	9e 81       	ldd	r25, Y+6	; 0x06
    86da:	fc 01       	movw	r30, r24
    86dc:	83 81       	ldd	r24, Z+3	; 0x03
    86de:	94 81       	ldd	r25, Z+4	; 0x04
    86e0:	82 0f       	add	r24, r18
    86e2:	93 1f       	adc	r25, r19
    86e4:	9b 83       	std	Y+3, r25	; 0x03
    86e6:	8a 83       	std	Y+2, r24	; 0x02
    86e8:	8a 81       	ldd	r24, Y+2	; 0x02
    86ea:	9b 81       	ldd	r25, Y+3	; 0x03
    86ec:	03 96       	adiw	r24, 0x03	; 3
    86ee:	2d 81       	ldd	r18, Y+5	; 0x05
    86f0:	3e 81       	ldd	r19, Y+6	; 0x06
    86f2:	f9 01       	movw	r30, r18
    86f4:	20 81       	ld	r18, Z
    86f6:	bc 01       	movw	r22, r24
    86f8:	82 2f       	mov	r24, r18
    86fa:	0e 94 00 00 	call	0	; 0x0 <__tmp_reg__>
    86fe:	8c 83       	std	Y+4, r24	; 0x04
    8700:	8c 81       	ldd	r24, Y+4	; 0x04
    8702:	88 2f       	mov	r24, r24
    8704:	90 e0       	ldi	r25, 0x00	; 0
    8706:	80 71       	andi	r24, 0x10	; 16
    8708:	99 27       	eor	r25, r25
    870a:	00 97       	sbiw	r24, 0x00	; 0
    870c:	01 f4       	brne	.+0      	; 0x870e <rbfs_truncate+0x7e>
    870e:	87 e0       	ldi	r24, 0x07	; 7
    8710:	00 c0       	rjmp	.+0      	; 0x8712 <rbfs_truncate+0x82>
    8712:	8f 81       	ldd	r24, Y+7	; 0x07
    8714:	98 85       	ldd	r25, Y+8	; 0x08
    8716:	fc 01       	movw	r30, r24
    8718:	24 81       	ldd	r18, Z+4	; 0x04
    871a:	35 81       	ldd	r19, Z+5	; 0x05
    871c:	8d 81       	ldd	r24, Y+5	; 0x05
    871e:	9e 81       	ldd	r25, Y+6	; 0x06
    8720:	fc 01       	movw	r30, r24
    8722:	87 85       	ldd	r24, Z+15	; 0x0f
    8724:	88 2f       	mov	r24, r24
    8726:	90 e0       	ldi	r25, 0x00	; 0
    8728:	82 17       	cp	r24, r18
    872a:	93 07       	cpc	r25, r19
    872c:	00 f4       	brcc	.+0      	; 0x872e <rbfs_truncate+0x9e>
    872e:	8d 81       	ldd	r24, Y+5	; 0x05
    8730:	9e 81       	ldd	r25, Y+6	; 0x06
    8732:	fc 01       	movw	r30, r24
    8734:	25 81       	ldd	r18, Z+5	; 0x05
    8736:	36 81       	ldd	r19, Z+6	; 0x06
    8738:	8f 81       	ldd	r24, Y+7	; 0x07
    873a:	98 85       	ldd	r25, Y+8	; 0x08
    873c:	fc 01       	movw	r30, r24
    873e:	81 81       	ldd	r24, Z+1	; 0x01
    8740:	68 2f       	mov	r22, r24
    8742:	70 e0       	ldi	r23, 0x00	; 0
    8744:	8d 81       	ldd	r24, Y+5	; 0x05
    8746:	9e 81       	ldd	r25, Y+6	; 0x06
    8748:	fc 01       	movw	r30, r24
    874a:	84 85       	ldd	r24, Z+12	; 0x0c
    874c:	48 2f       	mov	r20, r24
    874e:	50 e0       	ldi	r21, 0x00	; 0
    8750:	64 9f       	mul	r22, r20
    8752:	c0 01       	movw	r24, r0
    8754:	65 9f       	mul	r22, r21
    8756:	90 0d       	add	r25, r0
    8758:	74 9f       	mul	r23, r20
    875a:	90 0d       	add	r25, r0
    875c:	11 24       	eor	r1, r1
    875e:	82 0f       	add	r24, r18
    8760:	93 1f       	adc	r25, r19
    8762:	2d 81       	ldd	r18, Y+5	; 0x05
    8764:	3e 81       	ldd	r19, Y+6	; 0x06
    8766:	f9 01       	movw	r30, r18
    8768:	20 81       	ld	r18, Z
    876a:	bc 01       	movw	r22, r24
    876c:	82 2f       	mov	r24, r18
    876e:	0e 94 00 00 	call	0	; 0x0 <__tmp_reg__>
    8772:	28 2f       	mov	r18, r24
    8774:	8d 81       	ldd	r24, Y+5	; 0x05
    8776:	9e 81       	ldd	r25, Y+6	; 0x06
    8778:	62 2f       	mov	r22, r18
    877a:	0e 94 00 00 	call	0	; 0x0 <__tmp_reg__>
    877e:	89 83       	std	Y+1, r24	; 0x01
    8780:	8d 81       	ldd	r24, Y+5	; 0x05
    8782:	9e 81       	ldd	r25, Y+6	; 0x06
    8784:	fc 01       	movw	r30, r24
    8786:	91 89       	ldd	r25, Z+17	; 0x11
    8788:	89 81       	ldd	r24, Y+1	; 0x01
    878a:	29 2f       	mov	r18, r25
    878c:	28 0f       	add	r18, r24
    878e:	8d 81       	ldd	r24, Y+5	; 0x05
    8790:	9e 81       	ldd	r25, Y+6	; 0x06
    8792:	fc 01       	movw	r30, r24
    8794:	21 8b       	std	Z+17, r18	; 0x11
    8796:	8d 81       	ldd	r24, Y+5	; 0x05
    8798:	9e 81       	ldd	r25, Y+6	; 0x06
    879a:	fc 01       	movw	r30, r24
    879c:	20 81       	ld	r18, Z
    879e:	8d 81       	ldd	r24, Y+5	; 0x05
    87a0:	9e 81       	ldd	r25, Y+6	; 0x06
    87a2:	bc 01       	movw	r22, r24
    87a4:	82 2f       	mov	r24, r18
    87a6:	0e 94 00 00 	call	0	; 0x0 <__tmp_reg__>
    87aa:	8f 81       	ldd	r24, Y+7	; 0x07
    87ac:	98 85       	ldd	r25, Y+8	; 0x08
    87ae:	fc 01       	movw	r30, r24
    87b0:	15 82       	std	Z+5, r1	; 0x05
    87b2:	14 82       	std	Z+4, r1	; 0x04
    87b4:	8d 81       	ldd	r24, Y+5	; 0x05
    87b6:	9e 81       	ldd	r25, Y+6	; 0x06
    87b8:	fc 01       	movw	r30, r24
    87ba:	20 81       	ld	r18, Z
    87bc:	8a 81       	ldd	r24, Y+2	; 0x02
    87be:	9b 81       	ldd	r25, Y+3	; 0x03
    87c0:	40 e0       	ldi	r20, 0x00	; 0
    87c2:	bc 01       	movw	r22, r24
    87c4:	82 2f       	mov	r24, r18
    87c6:	0e 94 00 00 	call	0	; 0x0 <__tmp_reg__>
    87ca:	8a 81       	ldd	r24, Y+2	; 0x02
    87cc:	9b 81       	ldd	r25, Y+3	; 0x03
    87ce:	01 96       	adiw	r24, 0x01	; 1
    87d0:	2d 81       	ldd	r18, Y+5	; 0x05
    87d2:	3e 81       	ldd	r19, Y+6	; 0x06
    87d4:	f9 01       	movw	r30, r18
    87d6:	20 81       	ld	r18, Z
    87d8:	40 e0       	ldi	r20, 0x00	; 0
    87da:	bc 01       	movw	r22, r24
    87dc:	82 2f       	mov	r24, r18
    87de:	0e 94 00 00 	call	0	; 0x0 <__tmp_reg__>
    87e2:	80 e0       	ldi	r24, 0x00	; 0
    87e4:	28 96       	adiw	r28, 0x08	; 8
    87e6:	0f b6       	in	r0, 0x3f	; 63
    87e8:	f8 94       	cli
    87ea:	de bf       	out	0x3e, r29	; 62
    87ec:	0f be       	out	0x3f, r0	; 63
    87ee:	cd bf       	out	0x3d, r28	; 61
    87f0:	df 91       	pop	r29
    87f2:	cf 91       	pop	r28
    87f4:	08 95       	ret

Disassembly of section .text.rbfs_sync:

00010e86 <rbfs_sync>:
   10e86:	cf 93       	push	r28
   10e88:	df 93       	push	r29
   10e8a:	cd b7       	in	r28, 0x3d	; 61
   10e8c:	de b7       	in	r29, 0x3e	; 62
   10e8e:	27 97       	sbiw	r28, 0x07	; 7
   10e90:	0f b6       	in	r0, 0x3f	; 63
   10e92:	f8 94       	cli
   10e94:	de bf       	out	0x3e, r29	; 62
   10e96:	0f be       	out	0x3f, r0	; 63
   10e98:	cd bf       	out	0x3d, r28	; 61
   10e9a:	9d 83       	std	Y+5, r25	; 0x05
   10e9c:	8c 83       	std	Y+4, r24	; 0x04
   10e9e:	7f 83       	std	Y+7, r23	; 0x07
   10ea0:	6e 83       	std	Y+6, r22	; 0x06
   10ea2:	8e 81       	ldd	r24, Y+6	; 0x06
   10ea4:	9f 81       	ldd	r25, Y+7	; 0x07
   10ea6:	fc 01       	movw	r30, r24
   10ea8:	80 81       	ld	r24, Z
   10eaa:	48 2f       	mov	r20, r24
   10eac:	50 e0       	ldi	r21, 0x00	; 0
   10eae:	8c 81       	ldd	r24, Y+4	; 0x04
   10eb0:	9d 81       	ldd	r25, Y+5	; 0x05
   10eb2:	fc 01       	movw	r30, r24
   10eb4:	83 85       	ldd	r24, Z+11	; 0x0b
   10eb6:	28 2f       	mov	r18, r24
   10eb8:	30 e0       	ldi	r19, 0x00	; 0
   10eba:	42 9f       	mul	r20, r18
   10ebc:	c0 01       	movw	r24, r0
   10ebe:	43 9f       	mul	r20, r19
   10ec0:	90 0d       	add	r25, r0
   10ec2:	52 9f       	mul	r21, r18
   10ec4:	90 0d       	add	r25, r0
   10ec6:	11 24       	eor	r1, r1
   10ec8:	9c 01       	movw	r18, r24
   10eca:	8c 81       	ldd	r24, Y+4	; 0x04
   10ecc:	9d 81       	ldd	r25, Y+5	; 0x05
   10ece:	fc 01       	movw	r30, r24
   10ed0:	83 81       	ldd	r24, Z+3	; 0x03
   10ed2:	94 81       	ldd	r25, Z+4	; 0x04
   10ed4:	82 0f       	add	r24, r18
   10ed6:	93 1f       	adc	r25, r19
   10ed8:	9b 83       	std	Y+3, r25	; 0x03
   10eda:	8a 83       	std	Y+2, r24	; 0x02
   10edc:	19 82       	std	Y+1, r1	; 0x01
   10ede:	00 c0       	rjmp	.+0      	; 0x10ee0 <rbfs_sync+0x5a>
   10ee0:	8e 81       	ldd	r24, Y+6	; 0x06
   10ee2:	9f 81       	ldd	r25, Y+7	; 0x07
   10ee4:	9c 01       	movw	r18, r24
   10ee6:	2c 5f       	subi	r18, 0xFC	; 252
   10ee8:	3f 4f       	sbci	r19, 0xFF	; 255
   10eea:	89 81       	ldd	r24, Y+1	; 0x01
   10eec:	88 2f       	mov	r24, r24
   10eee:	90 e0       	ldi	r25, 0x00	; 0
   10ef0:	82 0f       	add	r24, r18
   10ef2:	93 1f       	adc	r25, r19
   10ef4:	fc 01       	movw	r30, r24
   10ef6:	40 81       	ld	r20, Z
   10ef8:	89 81       	ldd	r24, Y+1	; 0x01
   10efa:	28 2f       	mov	r18, r24
   10efc:	30 e0       	ldi	r19, 0x00	; 0
   10efe:	8a 81       	ldd	r24, Y+2	; 0x02
   10f00:	9b 81       	ldd	r25, Y+3	; 0x03
   10f02:	82 0f       	add	r24, r18
   10f04:	93 1f       	adc	r25, r19
   10f06:	2c 81       	ldd	r18, Y+4	; 0x04
   10f08:	3d 81       	ldd	r19, Y+5	; 0x05
   10f0a:	f9 01       	movw	r30, r18
   10f0c:	20 81       	ld	r18, Z
   10f0e:	bc 01       	movw	r22, r24
   10f10:	82 2f       	mov	r24, r18
   10f12:	0e 94 00 00 	call	0	; 0x0 <__tmp_reg__>
   10f16:	89 81       	ldd	r24, Y+1	; 0x01
   10f18:	8f 5f       	subi	r24, 0xFF	; 255
   10f1a:	89 83       	std	Y+1, r24	; 0x01
   10f1c:	89 81       	ldd	r24, Y+1	; 0x01
   10f1e:	82 30       	cpi	r24, 0x02	; 2
   10f20:	00 f0       	brcs	.+0      	; 0x10f22 <rbfs_sync+0x9c>
   10f22:	27 96       	adiw	r28, 0x07	; 7
   10f24:	0f b6       	in	r0, 0x3f	; 63
   10f26:	f8 94       	cli
   10f28:	de bf       	out	0x3e, r29	; 62
   10f2a:	0f be       	out	0x3f, r0	; 63
   10f2c:	cd bf       	out	0x3d, r28	; 61
   10f2e:	df 91       	pop	r29
   10f30:	cf 91       	pop	r28
   10f32:	08 95       	ret

Disassembly of section .text.rbfs_stat:

00021dba <rbfs_stat>:
   21dba:	cf 93       	push	r28
   21dbc:	df 93       	push	r29
   21dbe:	00 d0       	rcall	.+0      	; 0x21dc0 <rbfs_stat+0x6>
   21dc0:	00 d0       	rcall	.+0      	; 0x21dc2 <rbfs_stat+0x8>
   21dc2:	00 d0       	rcall	.+0      	; 0x21dc4 <rbfs_stat+0xa>
   21dc4:	cd b7       	in	r28, 0x3d	; 61
   21dc6:	de b7       	in	r29, 0x3e	; 62
   21dc8:	9a 83       	std	Y+2, r25	; 0x02
   21dca:	89 83       	std	Y+1, r24	; 0x01
   21dcc:	7c 83       	std	Y+4, r23	; 0x04
   21dce:	6b 83       	std	Y+3, r22	; 0x03
   21dd0:	5e 83       	std	Y+6, r21	; 0x06
   21dd2:	4d 83       	std	Y+5, r20	; 0x05
   21dd4:	8d 81       	ldd	r24, Y+5	; 0x05
   21dd6:	9e 81       	ldd	r25, Y+6	; 0x06
   21dd8:	2f ef       	ldi	r18, 0xFF	; 255
   21dda:	fc 01       	movw	r30, r24
   21ddc:	20 83       	st	Z, r18
   21dde:	26 96       	adiw	r28, 0x06	; 6
   21de0:	0f b6       	in	r0, 0x3f	; 63
   21de2:	f8 94       	cli
   21de4:	de bf       	out	0x3e, r29	; 62
   21de6:	0f be       	out	0x3f, r0	; 63
   21de8:	cd bf       	out	0x3d, r28	; 61
   21dea:	df 91       	pop	r29
   21dec:	cf 91       	pop	r28
   21dee:	08 95       	ret

Disassembly of section .text.rbfs_rewind:

00043baa <rbfs_rewind>:
   43baa:	cf 93       	push	r28
   43bac:	df 93       	push	r29
   43bae:	00 d0       	rcall	.+0      	; 0x43bb0 <rbfs_rewind+0x6>
   43bb0:	00 d0       	rcall	.+0      	; 0x43bb2 <rbfs_rewind+0x8>
   43bb2:	cd b7       	in	r28, 0x3d	; 61
   43bb4:	de b7       	in	r29, 0x3e	; 62
   43bb6:	9a 83       	std	Y+2, r25	; 0x02
   43bb8:	89 83       	std	Y+1, r24	; 0x01
   43bba:	7c 83       	std	Y+4, r23	; 0x04
   43bbc:	6b 83       	std	Y+3, r22	; 0x03
   43bbe:	8b 81       	ldd	r24, Y+3	; 0x03
   43bc0:	9c 81       	ldd	r25, Y+4	; 0x04
   43bc2:	fc 01       	movw	r30, r24
   43bc4:	21 81       	ldd	r18, Z+1	; 0x01
   43bc6:	8b 81       	ldd	r24, Y+3	; 0x03
   43bc8:	9c 81       	ldd	r25, Y+4	; 0x04
   43bca:	fc 01       	movw	r30, r24
   43bcc:	22 83       	std	Z+2, r18	; 0x02
   43bce:	89 81       	ldd	r24, Y+1	; 0x01
   43bd0:	9a 81       	ldd	r25, Y+2	; 0x02
   43bd2:	fc 01       	movw	r30, r24
   43bd4:	20 89       	ldd	r18, Z+16	; 0x10
   43bd6:	8b 81       	ldd	r24, Y+3	; 0x03
   43bd8:	9c 81       	ldd	r25, Y+4	; 0x04
   43bda:	fc 01       	movw	r30, r24
   43bdc:	23 83       	std	Z+3, r18	; 0x03
   43bde:	8b 81       	ldd	r24, Y+3	; 0x03
   43be0:	9c 81       	ldd	r25, Y+4	; 0x04
   43be2:	fc 01       	movw	r30, r24
   43be4:	17 82       	std	Z+7, r1	; 0x07
   43be6:	16 82       	std	Z+6, r1	; 0x06
   43be8:	8b 81       	ldd	r24, Y+3	; 0x03
   43bea:	9c 81       	ldd	r25, Y+4	; 0x04
   43bec:	0e 94 00 00 	call	0	; 0x0 <__tmp_reg__>
   43bf0:	80 e0       	ldi	r24, 0x00	; 0
   43bf2:	0f 90       	pop	r0
   43bf4:	0f 90       	pop	r0
   43bf6:	0f 90       	pop	r0
   43bf8:	0f 90       	pop	r0
   43bfa:	df 91       	pop	r29
   43bfc:	cf 91       	pop	r28
   43bfe:	08 95       	ret

Disassembly of section .text.rbfs_alloc:

000877aa <rbfs_alloc>:
   877aa:	cf 93       	push	r28
   877ac:	df 93       	push	r29
   877ae:	cd b7       	in	r28, 0x3d	; 61
   877b0:	de b7       	in	r29, 0x3e	; 62
   877b2:	2b 97       	sbiw	r28, 0x0b	; 11
   877b4:	0f b6       	in	r0, 0x3f	; 63
   877b6:	f8 94       	cli
   877b8:	de bf       	out	0x3e, r29	; 62
   877ba:	0f be       	out	0x3f, r0	; 63
   877bc:	cd bf       	out	0x3d, r28	; 61
   877be:	99 87       	std	Y+9, r25	; 0x09
   877c0:	88 87       	std	Y+8, r24	; 0x08
   877c2:	88 85       	ldd	r24, Y+8	; 0x08
   877c4:	99 85       	ldd	r25, Y+9	; 0x09
   877c6:	fc 01       	movw	r30, r24
   877c8:	81 89       	ldd	r24, Z+17	; 0x11
   877ca:	88 23       	and	r24, r24
   877cc:	01 f4       	brne	.+0      	; 0x877ce <rbfs_alloc+0x24>
   877ce:	8f ef       	ldi	r24, 0xFF	; 255
   877d0:	00 c0       	rjmp	.+0      	; 0x877d2 <rbfs_alloc+0x28>
   877d2:	88 85       	ldd	r24, Y+8	; 0x08
   877d4:	99 85       	ldd	r25, Y+9	; 0x09
   877d6:	fc 01       	movw	r30, r24
   877d8:	83 81       	ldd	r24, Z+3	; 0x03
   877da:	94 81       	ldd	r25, Z+4	; 0x04
   877dc:	9b 83       	std	Y+3, r25	; 0x03
   877de:	8a 83       	std	Y+2, r24	; 0x02
   877e0:	19 82       	std	Y+1, r1	; 0x01
   877e2:	00 c0       	rjmp	.+0      	; 0x877e4 <rbfs_alloc+0x3a>
   877e4:	8a 81       	ldd	r24, Y+2	; 0x02
   877e6:	9b 81       	ldd	r25, Y+3	; 0x03
   877e8:	03 96       	adiw	r24, 0x03	; 3
   877ea:	28 85       	ldd	r18, Y+8	; 0x08
   877ec:	39 85       	ldd	r19, Y+9	; 0x09
   877ee:	f9 01       	movw	r30, r18
   877f0:	20 81       	ld	r18, Z
   877f2:	bc 01       	movw	r22, r24
   877f4:	82 2f       	mov	r24, r18
   877f6:	0e 94 00 00 	call	0	; 0x0 <__tmp_reg__>
   877fa:	8c 83       	std	Y+4, r24	; 0x04
   877fc:	8c 81       	ldd	r24, Y+4	; 0x04
   877fe:	88 2f       	mov	r24, r24
   87800:	90 e0       	ldi	r25, 0x00	; 0
   87802:	80 71       	andi	r24, 0x10	; 16
   87804:	99 27       	eor	r25, r25
   87806:	00 97       	sbiw	r24, 0x00	; 0
   87808:	01 f0       	breq	.+0      	; 0x8780a <rbfs_alloc+0x60>
   8780a:	00 c0       	rjmp	.+0      	; 0x8780c <rbfs_alloc+0x62>
   8780c:	88 85       	ldd	r24, Y+8	; 0x08
   8780e:	99 85       	ldd	r25, Y+9	; 0x09
   87810:	0e 94 00 00 	call	0	; 0x0 <__tmp_reg__>
   87814:	9e 83       	std	Y+6, r25	; 0x06
   87816:	8d 83       	std	Y+5, r24	; 0x05
   87818:	8d 81       	ldd	r24, Y+5	; 0x05
   8781a:	9e 81       	ldd	r25, Y+6	; 0x06
   8781c:	00 97       	sbiw	r24, 0x00	; 0
   8781e:	01 f4       	brne	.+0      	; 0x87820 <rbfs_alloc+0x76>
   87820:	8f ef       	ldi	r24, 0xFF	; 255
   87822:	00 c0       	rjmp	.+0      	; 0x87824 <rbfs_alloc+0x7a>
   87824:	8c 81       	ldd	r24, Y+4	; 0x04
   87826:	80 61       	ori	r24, 0x10	; 16
   87828:	8c 83       	std	Y+4, r24	; 0x04
   8782a:	88 85       	ldd	r24, Y+8	; 0x08
   8782c:	99 85       	ldd	r25, Y+9	; 0x09
   8782e:	fc 01       	movw	r30, r24
   87830:	85 81       	ldd	r24, Z+5	; 0x05
   87832:	96 81       	ldd	r25, Z+6	; 0x06
   87834:	2d 81       	ldd	r18, Y+5	; 0x05
   87836:	3e 81       	ldd	r19, Y+6	; 0x06
   87838:	a9 01       	movw	r20, r18
   8783a:	48 1b       	sub	r20, r24
   8783c:	59 0b       	sbc	r21, r25
   8783e:	ca 01       	movw	r24, r20
   87840:	28 85       	ldd	r18, Y+8	; 0x08
   87842:	39 85       	ldd	r19, Y+9	; 0x09
   87844:	f9 01       	movw	r30, r18
   87846:	24 85       	ldd	r18, Z+12	; 0x0c
   87848:	22 2f       	mov	r18, r18
   8784a:	30 e0       	ldi	r19, 0x00	; 0
   8784c:	b9 01       	movw	r22, r18
   8784e:	0e 94 00 00 	call	0	; 0x0 <__tmp_reg__>
   87852:	cb 01       	movw	r24, r22
   87854:	8f 83       	std	Y+7, r24	; 0x07
   87856:	88 85       	ldd	r24, Y+8	; 0x08
   87858:	99 85       	ldd	r25, Y+9	; 0x09
   8785a:	4f ef       	ldi	r20, 0xFF	; 255
   8785c:	6f 81       	ldd	r22, Y+7	; 0x07
   8785e:	0e 94 00 00 	call	0	; 0x0 <__tmp_reg__>
   87862:	8a 81       	ldd	r24, Y+2	; 0x02
   87864:	9b 81       	ldd	r25, Y+3	; 0x03
   87866:	02 96       	adiw	r24, 0x02	; 2
   87868:	28 85       	ldd	r18, Y+8	; 0x08
   8786a:	39 85       	ldd	r19, Y+9	; 0x09
   8786c:	f9 01       	movw	r30, r18
   8786e:	20 81       	ld	r18, Z
   87870:	4f 81       	ldd	r20, Y+7	; 0x07
   87872:	bc 01       	movw	r22, r24
   87874:	82 2f       	mov	r24, r18
   87876:	0e 94 00 00 	call	0	; 0x0 <__tmp_reg__>
   8787a:	8a 81       	ldd	r24, Y+2	; 0x02
   8787c:	9b 81       	ldd	r25, Y+3	; 0x03
   8787e:	03 96       	adiw	r24, 0x03	; 3
   87880:	28 85       	ldd	r18, Y+8	; 0x08
   87882:	39 85       	ldd	r19, Y+9	; 0x09
   87884:	f9 01       	movw	r30, r18
   87886:	20 81       	ld	r18, Z
   87888:	4c 81       	ldd	r20, Y+4	; 0x04
   8788a:	bc 01       	movw	r22, r24
   8788c:	82 2f       	mov	r24, r18
   8788e:	0e 94 00 00 	call	0	; 0x0 <__tmp_reg__>
   87892:	89 81       	ldd	r24, Y+1	; 0x01
   87894:	00 c0       	rjmp	.+0      	; 0x87896 <rbfs_alloc+0xec>
   87896:	88 85       	ldd	r24, Y+8	; 0x08
   87898:	99 85       	ldd	r25, Y+9	; 0x09
   8789a:	fc 01       	movw	r30, r24
   8789c:	83 85       	ldd	r24, Z+11	; 0x0b
   8789e:	88 2f       	mov	r24, r24
   878a0:	90 e0       	ldi	r25, 0x00	; 0
   878a2:	2a 81       	ldd	r18, Y+2	; 0x02
   878a4:	3b 81       	ldd	r19, Y+3	; 0x03
   878a6:	82 0f       	add	r24, r18
   878a8:	93 1f       	adc	r25, r19
   878aa:	9b 83       	std	Y+3, r25	; 0x03
   878ac:	8a 83       	std	Y+2, r24	; 0x02
   878ae:	89 81       	ldd	r24, Y+1	; 0x01
   878b0:	8f 5f       	subi	r24, 0xFF	; 255
   878b2:	89 83       	std	Y+1, r24	; 0x01
   878b4:	88 85       	ldd	r24, Y+8	; 0x08
   878b6:	99 85       	ldd	r25, Y+9	; 0x09
   878b8:	fc 01       	movw	r30, r24
   878ba:	95 85       	ldd	r25, Z+13	; 0x0d
   878bc:	89 81       	ldd	r24, Y+1	; 0x01
   878be:	89 17       	cp	r24, r25
   878c0:	00 f4       	brcc	.+0      	; 0x878c2 <rbfs_alloc+0x118>
   878c2:	00 c0       	rjmp	.+0      	; 0x878c4 <rbfs_alloc+0x11a>
   878c4:	8f ef       	ldi	r24, 0xFF	; 255
   878c6:	2b 96       	adiw	r28, 0x0b	; 11
   878c8:	0f b6       	in	r0, 0x3f	; 63
   878ca:	f8 94       	cli
   878cc:	de bf       	out	0x3e, r29	; 62
   878ce:	0f be       	out	0x3f, r0	; 63
   878d0:	cd bf       	out	0x3d, r28	; 61
   878d2:	df 91       	pop	r29
   878d4:	cf 91       	pop	r28
   878d6:	08 95       	ret

Disassembly of section .text.rbfs_release:

0010f082 <rbfs_release>:
  10f082:	cf 93       	push	r28
  10f084:	df 93       	push	r29
  10f086:	cd b7       	in	r28, 0x3d	; 61
  10f088:	de b7       	in	r29, 0x3e	; 62
  10f08a:	27 97       	sbiw	r28, 0x07	; 7
  10f08c:	0f b6       	in	r0, 0x3f	; 63
  10f08e:	f8 94       	cli
  10f090:	de bf       	out	0x3e, r29	; 62
  10f092:	0f be       	out	0x3f, r0	; 63
  10f094:	cd bf       	out	0x3d, r28	; 61
  10f096:	9d 83       	std	Y+5, r25	; 0x05
  10f098:	8c 83       	std	Y+4, r24	; 0x04
  10f09a:	7f 83       	std	Y+7, r23	; 0x07
  10f09c:	6e 83       	std	Y+6, r22	; 0x06
  10f09e:	8e 81       	ldd	r24, Y+6	; 0x06
  10f0a0:	9f 81       	ldd	r25, Y+7	; 0x07
  10f0a2:	fc 01       	movw	r30, r24
  10f0a4:	80 81       	ld	r24, Z
  10f0a6:	48 2f       	mov	r20, r24
  10f0a8:	50 e0       	ldi	r21, 0x00	; 0
  10f0aa:	8c 81       	ldd	r24, Y+4	; 0x04
  10f0ac:	9d 81       	ldd	r25, Y+5	; 0x05
  10f0ae:	fc 01       	movw	r30, r24
  10f0b0:	83 85       	ldd	r24, Z+11	; 0x0b
  10f0b2:	28 2f       	mov	r18, r24
  10f0b4:	30 e0       	ldi	r19, 0x00	; 0
  10f0b6:	42 9f       	mul	r20, r18
  10f0b8:	c0 01       	movw	r24, r0
  10f0ba:	43 9f       	mul	r20, r19
  10f0bc:	90 0d       	add	r25, r0
  10f0be:	52 9f       	mul	r21, r18
  10f0c0:	90 0d       	add	r25, r0
  10f0c2:	11 24       	eor	r1, r1
  10f0c4:	9c 01       	movw	r18, r24
  10f0c6:	8c 81       	ldd	r24, Y+4	; 0x04
  10f0c8:	9d 81       	ldd	r25, Y+5	; 0x05
  10f0ca:	fc 01       	movw	r30, r24
  10f0cc:	83 81       	ldd	r24, Z+3	; 0x03
  10f0ce:	94 81       	ldd	r25, Z+4	; 0x04
  10f0d0:	82 0f       	add	r24, r18
  10f0d2:	93 1f       	adc	r25, r19
  10f0d4:	9a 83       	std	Y+2, r25	; 0x02
  10f0d6:	89 83       	std	Y+1, r24	; 0x01
  10f0d8:	89 81       	ldd	r24, Y+1	; 0x01
  10f0da:	9a 81       	ldd	r25, Y+2	; 0x02
  10f0dc:	03 96       	adiw	r24, 0x03	; 3
  10f0de:	2c 81       	ldd	r18, Y+4	; 0x04
  10f0e0:	3d 81       	ldd	r19, Y+5	; 0x05
  10f0e2:	f9 01       	movw	r30, r18
  10f0e4:	20 81       	ld	r18, Z
  10f0e6:	bc 01       	movw	r22, r24
  10f0e8:	82 2f       	mov	r24, r18
  10f0ea:	0e 94 00 00 	call	0	; 0x0 <__tmp_reg__>
  10f0ee:	8b 83       	std	Y+3, r24	; 0x03
  10f0f0:	8b 81       	ldd	r24, Y+3	; 0x03
  10f0f2:	88 2f       	mov	r24, r24
  10f0f4:	90 e0       	ldi	r25, 0x00	; 0
  10f0f6:	80 71       	andi	r24, 0x10	; 16
  10f0f8:	99 27       	eor	r25, r25
  10f0fa:	00 97       	sbiw	r24, 0x00	; 0
  10f0fc:	01 f4       	brne	.+0      	; 0x10f0fe <rbfs_release+0x7c>
  10f0fe:	81 e0       	ldi	r24, 0x01	; 1
  10f100:	00 c0       	rjmp	.+0      	; 0x10f102 <rbfs_release+0x80>
  10f102:	2e 81       	ldd	r18, Y+6	; 0x06
  10f104:	3f 81       	ldd	r19, Y+7	; 0x07
  10f106:	8c 81       	ldd	r24, Y+4	; 0x04
  10f108:	9d 81       	ldd	r25, Y+5	; 0x05
  10f10a:	b9 01       	movw	r22, r18
  10f10c:	0e 94 00 00 	call	0	; 0x0 <__tmp_reg__>
  10f110:	8e 81       	ldd	r24, Y+6	; 0x06
  10f112:	9f 81       	ldd	r25, Y+7	; 0x07
  10f114:	fc 01       	movw	r30, r24
  10f116:	20 81       	ld	r18, Z
  10f118:	8c 81       	ldd	r24, Y+4	; 0x04
  10f11a:	9d 81       	ldd	r25, Y+5	; 0x05
  10f11c:	62 2f       	mov	r22, r18
  10f11e:	0e 94 00 00 	call	0	; 0x0 <__tmp_reg__>
  10f122:	8e 81       	ldd	r24, Y+6	; 0x06
  10f124:	9f 81       	ldd	r25, Y+7	; 0x07
  10f126:	fc 01       	movw	r30, r24
  10f128:	10 86       	std	Z+8, r1	; 0x08
  10f12a:	81 e0       	ldi	r24, 0x01	; 1
  10f12c:	27 96       	adiw	r28, 0x07	; 7
  10f12e:	0f b6       	in	r0, 0x3f	; 63
  10f130:	f8 94       	cli
  10f132:	de bf       	out	0x3e, r29	; 62
  10f134:	0f be       	out	0x3f, r0	; 63
  10f136:	cd bf       	out	0x3d, r28	; 61
  10f138:	df 91       	pop	r29
  10f13a:	cf 91       	pop	r28
  10f13c:	08 95       	ret

Disassembly of section .text.rbfs_size:

0021e1c0 <rbfs_size>:
  21e1c0:	cf 93       	push	r28
  21e1c2:	df 93       	push	r29
  21e1c4:	00 d0       	rcall	.+0      	; 0x21e1c6 <rbfs_size+0x6>
  21e1c6:	cd b7       	in	r28, 0x3d	; 61
  21e1c8:	de b7       	in	r29, 0x3e	; 62
  21e1ca:	9a 83       	std	Y+2, r25	; 0x02
  21e1cc:	89 83       	std	Y+1, r24	; 0x01
  21e1ce:	89 81       	ldd	r24, Y+1	; 0x01
  21e1d0:	9a 81       	ldd	r25, Y+2	; 0x02
  21e1d2:	fc 01       	movw	r30, r24
  21e1d4:	84 81       	ldd	r24, Z+4	; 0x04
  21e1d6:	95 81       	ldd	r25, Z+5	; 0x05
  21e1d8:	0f 90       	pop	r0
  21e1da:	0f 90       	pop	r0
  21e1dc:	df 91       	pop	r29
  21e1de:	cf 91       	pop	r28
  21e1e0:	08 95       	ret

Disassembly of section .text.rbfs_tell:

0043c3a2 <rbfs_tell>:
  43c3a2:	cf 93       	push	r28
  43c3a4:	df 93       	push	r29
  43c3a6:	00 d0       	rcall	.+0      	; 0x43c3a8 <rbfs_tell+0x6>
  43c3a8:	cd b7       	in	r28, 0x3d	; 61
  43c3aa:	de b7       	in	r29, 0x3e	; 62
  43c3ac:	9a 83       	std	Y+2, r25	; 0x02
  43c3ae:	89 83       	std	Y+1, r24	; 0x01
  43c3b0:	89 81       	ldd	r24, Y+1	; 0x01
  43c3b2:	9a 81       	ldd	r25, Y+2	; 0x02
  43c3b4:	fc 01       	movw	r30, r24
  43c3b6:	86 81       	ldd	r24, Z+6	; 0x06
  43c3b8:	97 81       	ldd	r25, Z+7	; 0x07
  43c3ba:	0f 90       	pop	r0
  43c3bc:	0f 90       	pop	r0
  43c3be:	df 91       	pop	r29
  43c3c0:	cf 91       	pop	r28
  43c3c2:	08 95       	ret

Disassembly of section .text.rbfs_eor:

00878766 <rbfs_eor>:
  878766:	cf 93       	push	r28
  878768:	df 93       	push	r29
  87876a:	00 d0       	rcall	.+0      	; 0x87876c <rbfs_eor+0x6>
  87876c:	cd b7       	in	r28, 0x3d	; 61
  87876e:	de b7       	in	r29, 0x3e	; 62
  878770:	9a 83       	std	Y+2, r25	; 0x02
  878772:	89 83       	std	Y+1, r24	; 0x01
  878774:	89 81       	ldd	r24, Y+1	; 0x01
  878776:	9a 81       	ldd	r25, Y+2	; 0x02
  878778:	0e 94 00 00 	call	0	; 0x0 <__tmp_reg__>
  87877c:	0f 90       	pop	r0
  87877e:	0f 90       	pop	r0
  878780:	df 91       	pop	r29
  878782:	cf 91       	pop	r28
  878784:	08 95       	ret

Disassembly of section .text.rbfs_error:

010f0eec <rbfs_error>:
 10f0eec:	cf 93       	push	r28
 10f0eee:	df 93       	push	r29
 10f0ef0:	00 d0       	rcall	.+0      	; 0x10f0ef2 <rbfs_error+0x6>
 10f0ef2:	cd b7       	in	r28, 0x3d	; 61
 10f0ef4:	de b7       	in	r29, 0x3e	; 62
 10f0ef6:	9a 83       	std	Y+2, r25	; 0x02
 10f0ef8:	89 83       	std	Y+1, r24	; 0x01
 10f0efa:	89 81       	ldd	r24, Y+1	; 0x01
 10f0efc:	9a 81       	ldd	r25, Y+2	; 0x02
 10f0efe:	fc 01       	movw	r30, r24
 10f0f00:	80 85       	ldd	r24, Z+8	; 0x08
 10f0f02:	88 2f       	mov	r24, r24
 10f0f04:	90 e0       	ldi	r25, 0x00	; 0
 10f0f06:	84 70       	andi	r24, 0x04	; 4
 10f0f08:	99 27       	eor	r25, r25
 10f0f0a:	00 97       	sbiw	r24, 0x00	; 0
 10f0f0c:	01 f4       	brne	.+0      	; 0x10f0f0e <rbfs_error+0x22>
 10f0f0e:	89 81       	ldd	r24, Y+1	; 0x01
 10f0f10:	9a 81       	ldd	r25, Y+2	; 0x02
 10f0f12:	fc 01       	movw	r30, r24
 10f0f14:	80 85       	ldd	r24, Z+8	; 0x08
 10f0f16:	88 2f       	mov	r24, r24
 10f0f18:	90 e0       	ldi	r25, 0x00	; 0
 10f0f1a:	88 70       	andi	r24, 0x08	; 8
 10f0f1c:	99 27       	eor	r25, r25
 10f0f1e:	00 97       	sbiw	r24, 0x00	; 0
 10f0f20:	01 f0       	breq	.+0      	; 0x10f0f22 <rbfs_error+0x36>
 10f0f22:	81 e0       	ldi	r24, 0x01	; 1
 10f0f24:	90 e0       	ldi	r25, 0x00	; 0
 10f0f26:	00 c0       	rjmp	.+0      	; 0x10f0f28 <rbfs_error+0x3c>
 10f0f28:	80 e0       	ldi	r24, 0x00	; 0
 10f0f2a:	90 e0       	ldi	r25, 0x00	; 0
 10f0f2c:	0f 90       	pop	r0
 10f0f2e:	0f 90       	pop	r0
 10f0f30:	df 91       	pop	r29
 10f0f32:	cf 91       	pop	r28
 10f0f34:	08 95       	ret

Disassembly of section .text.rbfs_available_space:

021e1e22 <rbfs_available_space>:
 21e1e22:	cf 93       	push	r28
 21e1e24:	df 93       	push	r29
 21e1e26:	00 d0       	rcall	.+0      	; 0x21e1e28 <rbfs_available_space+0x6>
 21e1e28:	cd b7       	in	r28, 0x3d	; 61
 21e1e2a:	de b7       	in	r29, 0x3e	; 62
 21e1e2c:	9a 83       	std	Y+2, r25	; 0x02
 21e1e2e:	89 83       	std	Y+1, r24	; 0x01
 21e1e30:	89 81       	ldd	r24, Y+1	; 0x01
 21e1e32:	9a 81       	ldd	r25, Y+2	; 0x02
 21e1e34:	fc 01       	movw	r30, r24
 21e1e36:	81 89       	ldd	r24, Z+17	; 0x11
 21e1e38:	48 2f       	mov	r20, r24
 21e1e3a:	50 e0       	ldi	r21, 0x00	; 0
 21e1e3c:	89 81       	ldd	r24, Y+1	; 0x01
 21e1e3e:	9a 81       	ldd	r25, Y+2	; 0x02
 21e1e40:	fc 01       	movw	r30, r24
 21e1e42:	87 85       	ldd	r24, Z+15	; 0x0f
 21e1e44:	28 2f       	mov	r18, r24
 21e1e46:	30 e0       	ldi	r19, 0x00	; 0
 21e1e48:	42 9f       	mul	r20, r18
 21e1e4a:	c0 01       	movw	r24, r0
 21e1e4c:	43 9f       	mul	r20, r19
 21e1e4e:	90 0d       	add	r25, r0
 21e1e50:	52 9f       	mul	r21, r18
 21e1e52:	90 0d       	add	r25, r0
 21e1e54:	11 24       	eor	r1, r1
 21e1e56:	0f 90       	pop	r0
 21e1e58:	0f 90       	pop	r0
 21e1e5a:	df 91       	pop	r29
 21e1e5c:	cf 91       	pop	r28
 21e1e5e:	08 95       	ret

Disassembly of section .text.rbfs_total_space:

043c3c82 <rbfs_total_space>:
 43c3c82:	cf 93       	push	r28
 43c3c84:	df 93       	push	r29
 43c3c86:	00 d0       	rcall	.+0      	; 0x43c3c88 <rbfs_total_space+0x6>
 43c3c88:	cd b7       	in	r28, 0x3d	; 61
 43c3c8a:	de b7       	in	r29, 0x3e	; 62
 43c3c8c:	9a 83       	std	Y+2, r25	; 0x02
 43c3c8e:	89 83       	std	Y+1, r24	; 0x01
 43c3c90:	89 81       	ldd	r24, Y+1	; 0x01
 43c3c92:	9a 81       	ldd	r25, Y+2	; 0x02
 43c3c94:	fc 01       	movw	r30, r24
 43c3c96:	86 85       	ldd	r24, Z+14	; 0x0e
 43c3c98:	48 2f       	mov	r20, r24
 43c3c9a:	50 e0       	ldi	r21, 0x00	; 0
 43c3c9c:	89 81       	ldd	r24, Y+1	; 0x01
 43c3c9e:	9a 81       	ldd	r25, Y+2	; 0x02
 43c3ca0:	fc 01       	movw	r30, r24
 43c3ca2:	87 85       	ldd	r24, Z+15	; 0x0f
 43c3ca4:	28 2f       	mov	r18, r24
 43c3ca6:	30 e0       	ldi	r19, 0x00	; 0
 43c3ca8:	42 9f       	mul	r20, r18
 43c3caa:	c0 01       	movw	r24, r0
 43c3cac:	43 9f       	mul	r20, r19
 43c3cae:	90 0d       	add	r25, r0
 43c3cb0:	52 9f       	mul	r21, r18
 43c3cb2:	90 0d       	add	r25, r0
 43c3cb4:	11 24       	eor	r1, r1
 43c3cb6:	0f 90       	pop	r0
 43c3cb8:	0f 90       	pop	r0
 43c3cba:	df 91       	pop	r29
 43c3cbc:	cf 91       	pop	r28
 43c3cbe:	08 95       	ret

rbfs_make_partition.o:     file format elf32-avr

Sections:
Idx Name          Size      VMA       LMA       File off  Algn
  0 .text         00000000  00000000  00000000  00000034  2**0
                  CONTENTS, ALLOC, LOAD, READONLY, CODE
  1 .data         00000000  00000000  00000000  00000034  2**0
                  CONTENTS, ALLOC, LOAD, DATA
  2 .bss          00000000  00000000  00000000  00000034  2**0
                  ALLOC
  3 .stab         000007b0  00000000  00000000  00000034  2**2
                  CONTENTS, RELOC, READONLY, DEBUGGING
  4 .stabstr      00001453  00000000  00000000  000007e4  2**0
                  CONTENTS, READONLY, DEBUGGING
  5 .text.rbfs_make_partition 000001fa  00000000  00000000  00001c37  2**0
                  CONTENTS, ALLOC, LOAD, RELOC, READONLY, CODE
  6 .comment      00000012  00000000  00000000  00001e31  2**0
                  CONTENTS, READONLY

Disassembly of section .text.rbfs_make_partition:

00000000 <rbfs_make_partition>:
#ifndef __RBFS_MAKE_PARTITION_C__
#define __RBFS_MAKE_PARTITION_C__ 1

#include "rbfs_make_partition.h"

void rbfs_make_partition(rbfs_t *rbfs, rbfs_disk_size_t size, rbfs_environment_t env, rbfs_driver_t driver) {
   0:	cf 93       	push	r28
   2:	df 93       	push	r29
   4:	00 d0       	rcall	.+0      	; 0x6 <rbfs_make_partition+0x6>
   6:	00 d0       	rcall	.+0      	; 0x8 <rbfs_make_partition+0x8>
   8:	1f 92       	push	r1
   a:	cd b7       	in	r28, 0x3d	; 61
   c:	de b7       	in	r29, 0x3e	; 62
   e:	9a 83       	std	Y+2, r25	; 0x02
  10:	89 83       	std	Y+1, r24	; 0x01
  12:	6b 83       	std	Y+3, r22	; 0x03
  14:	4c 83       	std	Y+4, r20	; 0x04
  16:	2d 83       	std	Y+5, r18	; 0x05
    
    rbfs->driver = driver;
  18:	89 81       	ldd	r24, Y+1	; 0x01
  1a:	9a 81       	ldd	r25, Y+2	; 0x02
  1c:	2d 81       	ldd	r18, Y+5	; 0x05
  1e:	fc 01       	movw	r30, r24
  20:	20 83       	st	Z, r18
    switch(size) {
  22:	8b 81       	ldd	r24, Y+3	; 0x03
  24:	88 2f       	mov	r24, r24
  26:	90 e0       	ldi	r25, 0x00	; 0
  28:	81 30       	cpi	r24, 0x01	; 1
  2a:	91 05       	cpc	r25, r1
  2c:	01 f4       	brne	.+0      	; 0x2e <rbfs_make_partition+0x2e>
  2e:	00 c0       	rjmp	.+0      	; 0x30 <rbfs_make_partition+0x30>
  30:	82 30       	cpi	r24, 0x02	; 2
  32:	91 05       	cpc	r25, r1
  34:	01 f0       	breq	.+0      	; 0x36 <rbfs_make_partition+0x36>
  36:	00 c0       	rjmp	.+0      	; 0x38 <rbfs_make_partition+0x38>
        
        case RBFS_DISK_32K:
            rbfs->memory_size = 0x7f94; //32660;
  38:	89 81       	ldd	r24, Y+1	; 0x01
  3a:	9a 81       	ldd	r25, Y+2	; 0x02
  3c:	24 e9       	ldi	r18, 0x94	; 148
  3e:	3f e7       	ldi	r19, 0x7F	; 127
  40:	fc 01       	movw	r30, r24
  42:	32 83       	std	Z+2, r19	; 0x02
  44:	21 83       	std	Z+1, r18	; 0x01
            rbfs->resource_descriptor_table_address = 0x0020; //32;
  46:	89 81       	ldd	r24, Y+1	; 0x01
  48:	9a 81       	ldd	r25, Y+2	; 0x02
  4a:	20 e2       	ldi	r18, 0x20	; 32
  4c:	30 e0       	ldi	r19, 0x00	; 0
  4e:	fc 01       	movw	r30, r24
  50:	34 83       	std	Z+4, r19	; 0x04
  52:	23 83       	std	Z+3, r18	; 0x03
            rbfs->cluster_table_address = 0x00a0; //160;
  54:	89 81       	ldd	r24, Y+1	; 0x01
  56:	9a 81       	ldd	r25, Y+2	; 0x02
  58:	20 ea       	ldi	r18, 0xA0	; 160
  5a:	30 e0       	ldi	r19, 0x00	; 0
  5c:	fc 01       	movw	r30, r24
  5e:	36 83       	std	Z+6, r19	; 0x06
  60:	25 83       	std	Z+5, r18	; 0x05
            rbfs->sizeof_resource_descriptor_table = 0x0080; //128;
  62:	89 81       	ldd	r24, Y+1	; 0x01
  64:	9a 81       	ldd	r25, Y+2	; 0x02
  66:	20 e8       	ldi	r18, 0x80	; 128
  68:	30 e0       	ldi	r19, 0x00	; 0
  6a:	fc 01       	movw	r30, r24
  6c:	30 87       	std	Z+8, r19	; 0x08
  6e:	27 83       	std	Z+7, r18	; 0x07
            rbfs->sizeof_cluster_table = 0x7ef4; //32500;
  70:	89 81       	ldd	r24, Y+1	; 0x01
  72:	9a 81       	ldd	r25, Y+2	; 0x02
  74:	24 ef       	ldi	r18, 0xF4	; 244
  76:	3e e7       	ldi	r19, 0x7E	; 126
  78:	fc 01       	movw	r30, r24
  7a:	32 87       	std	Z+10, r19	; 0x0a
  7c:	21 87       	std	Z+9, r18	; 0x09
            rbfs->sizeof_resource_descriptor = 0x04; //4;
  7e:	89 81       	ldd	r24, Y+1	; 0x01
  80:	9a 81       	ldd	r25, Y+2	; 0x02
  82:	24 e0       	ldi	r18, 0x04	; 4
  84:	fc 01       	movw	r30, r24
  86:	23 87       	std	Z+11, r18	; 0x0b
            rbfs->sizeof_cluster = 0x82; //130;
  88:	89 81       	ldd	r24, Y+1	; 0x01
  8a:	9a 81       	ldd	r25, Y+2	; 0x02
  8c:	22 e8       	ldi	r18, 0x82	; 130
  8e:	fc 01       	movw	r30, r24
  90:	24 87       	std	Z+12, r18	; 0x0c
            rbfs->resource_descriptor_count = 0x20; //32;
  92:	89 81       	ldd	r24, Y+1	; 0x01
  94:	9a 81       	ldd	r25, Y+2	; 0x02
  96:	20 e2       	ldi	r18, 0x20	; 32
  98:	fc 01       	movw	r30, r24
  9a:	25 87       	std	Z+13, r18	; 0x0d
            rbfs->cluster_count = 0xfa; //250;
  9c:	89 81       	ldd	r24, Y+1	; 0x01
  9e:	9a 81       	ldd	r25, Y+2	; 0x02
  a0:	2a ef       	ldi	r18, 0xFA	; 250
  a2:	fc 01       	movw	r30, r24
  a4:	26 87       	std	Z+14, r18	; 0x0e
            rbfs->sizeof_cluster_data = 0x80; //128;
  a6:	89 81       	ldd	r24, Y+1	; 0x01
  a8:	9a 81       	ldd	r25, Y+2	; 0x02
  aa:	20 e8       	ldi	r18, 0x80	; 128
  ac:	fc 01       	movw	r30, r24
  ae:	27 87       	std	Z+15, r18	; 0x0f
            rbfs->sizeof_cluster_control = 0x02; //2;
  b0:	89 81       	ldd	r24, Y+1	; 0x01
  b2:	9a 81       	ldd	r25, Y+2	; 0x02
  b4:	22 e0       	ldi	r18, 0x02	; 2
  b6:	fc 01       	movw	r30, r24
  b8:	20 8b       	std	Z+16, r18	; 0x10
            rbfs->free_clusters = 0xfa; //250;
  ba:	89 81       	ldd	r24, Y+1	; 0x01
  bc:	9a 81       	ldd	r25, Y+2	; 0x02
  be:	2a ef       	ldi	r18, 0xFA	; 250
  c0:	fc 01       	movw	r30, r24
  c2:	21 8b       	std	Z+17, r18	; 0x11
        break;
  c4:	00 c0       	rjmp	.+0      	; 0xc6 <rbfs_make_partition+0xc6>
        
        case RBFS_DISK_8K:
            rbfs->memory_size = 0x2000; //8192;
  c6:	89 81       	ldd	r24, Y+1	; 0x01
  c8:	9a 81       	ldd	r25, Y+2	; 0x02
  ca:	20 e0       	ldi	r18, 0x00	; 0
  cc:	30 e2       	ldi	r19, 0x20	; 32
  ce:	fc 01       	movw	r30, r24
  d0:	32 83       	std	Z+2, r19	; 0x02
  d2:	21 83       	std	Z+1, r18	; 0x01
            rbfs->resource_descriptor_table_address = 0x0020; //32;
  d4:	89 81       	ldd	r24, Y+1	; 0x01
  d6:	9a 81       	ldd	r25, Y+2	; 0x02
  d8:	20 e2       	ldi	r18, 0x20	; 32
  da:	30 e0       	ldi	r19, 0x00	; 0
  dc:	fc 01       	movw	r30, r24
  de:	34 83       	std	Z+4, r19	; 0x04
  e0:	23 83       	std	Z+3, r18	; 0x03
            rbfs->cluster_table_address = 0x00a0; //160;
  e2:	89 81       	ldd	r24, Y+1	; 0x01
  e4:	9a 81       	ldd	r25, Y+2	; 0x02
  e6:	20 ea       	ldi	r18, 0xA0	; 160
  e8:	30 e0       	ldi	r19, 0x00	; 0
  ea:	fc 01       	movw	r30, r24
  ec:	36 83       	std	Z+6, r19	; 0x06
  ee:	25 83       	std	Z+5, r18	; 0x05
            rbfs->sizeof_resource_descriptor_table = 0x0080; //128;
  f0:	89 81       	ldd	r24, Y+1	; 0x01
  f2:	9a 81       	ldd	r25, Y+2	; 0x02
  f4:	20 e8       	ldi	r18, 0x80	; 128
  f6:	30 e0       	ldi	r19, 0x00	; 0
  f8:	fc 01       	movw	r30, r24
  fa:	30 87       	std	Z+8, r19	; 0x08
  fc:	27 83       	std	Z+7, r18	; 0x07
            rbfs->sizeof_cluster_table = 0x1f60; //8032;
  fe:	89 81       	ldd	r24, Y+1	; 0x01
 100:	9a 81       	ldd	r25, Y+2	; 0x02
 102:	20 e6       	ldi	r18, 0x60	; 96
 104:	3f e1       	ldi	r19, 0x1F	; 31
 106:	fc 01       	movw	r30, r24
 108:	32 87       	std	Z+10, r19	; 0x0a
 10a:	21 87       	std	Z+9, r18	; 0x09
            rbfs->sizeof_resource_descriptor = 0x04; //4;
 10c:	89 81       	ldd	r24, Y+1	; 0x01
 10e:	9a 81       	ldd	r25, Y+2	; 0x02
 110:	24 e0       	ldi	r18, 0x04	; 4
 112:	fc 01       	movw	r30, r24
 114:	23 87       	std	Z+11, r18	; 0x0b
            rbfs->sizeof_cluster = 0x20; //32;
 116:	89 81       	ldd	r24, Y+1	; 0x01
 118:	9a 81       	ldd	r25, Y+2	; 0x02
 11a:	20 e2       	ldi	r18, 0x20	; 32
 11c:	fc 01       	movw	r30, r24
 11e:	24 87       	std	Z+12, r18	; 0x0c
            rbfs->resource_descriptor_count = 0x20; //32;
 120:	89 81       	ldd	r24, Y+1	; 0x01
 122:	9a 81       	ldd	r25, Y+2	; 0x02
 124:	20 e2       	ldi	r18, 0x20	; 32
 126:	fc 01       	movw	r30, r24
 128:	25 87       	std	Z+13, r18	; 0x0d
            rbfs->cluster_count = 0xfb; //251;
 12a:	89 81       	ldd	r24, Y+1	; 0x01
 12c:	9a 81       	ldd	r25, Y+2	; 0x02
 12e:	2b ef       	ldi	r18, 0xFB	; 251
 130:	fc 01       	movw	r30, r24
 132:	26 87       	std	Z+14, r18	; 0x0e
            rbfs->sizeof_cluster_data = 0x1e; //30;
 134:	89 81       	ldd	r24, Y+1	; 0x01
 136:	9a 81       	ldd	r25, Y+2	; 0x02
 138:	2e e1       	ldi	r18, 0x1E	; 30
 13a:	fc 01       	movw	r30, r24
 13c:	27 87       	std	Z+15, r18	; 0x0f
            rbfs->sizeof_cluster_control = 0x02; //2;
 13e:	89 81       	ldd	r24, Y+1	; 0x01
 140:	9a 81       	ldd	r25, Y+2	; 0x02
 142:	22 e0       	ldi	r18, 0x02	; 2
 144:	fc 01       	movw	r30, r24
 146:	20 8b       	std	Z+16, r18	; 0x10
            rbfs->free_clusters = 0xfb; //251;
 148:	89 81       	ldd	r24, Y+1	; 0x01
 14a:	9a 81       	ldd	r25, Y+2	; 0x02
 14c:	2b ef       	ldi	r18, 0xFB	; 251
 14e:	fc 01       	movw	r30, r24
 150:	21 8b       	std	Z+17, r18	; 0x11
        break;
 152:	00 c0       	rjmp	.+0      	; 0x154 <rbfs_make_partition+0x154>
        
        default:
            rbfs->memory_size = 0xf46; //3910;
 154:	89 81       	ldd	r24, Y+1	; 0x01
 156:	9a 81       	ldd	r25, Y+2	; 0x02
 158:	26 e4       	ldi	r18, 0x46	; 70
 15a:	3f e0       	ldi	r19, 0x0F	; 15
 15c:	fc 01       	movw	r30, r24
 15e:	32 83       	std	Z+2, r19	; 0x02
 160:	21 83       	std	Z+1, r18	; 0x01
            rbfs->resource_descriptor_table_address = 0x0020; //32;
 162:	89 81       	ldd	r24, Y+1	; 0x01
 164:	9a 81       	ldd	r25, Y+2	; 0x02
 166:	20 e2       	ldi	r18, 0x20	; 32
 168:	30 e0       	ldi	r19, 0x00	; 0
 16a:	fc 01       	movw	r30, r24
 16c:	34 83       	std	Z+4, r19	; 0x04
 16e:	23 83       	std	Z+3, r18	; 0x03
            rbfs->cluster_table_address = 0x00a0; //160;
 170:	89 81       	ldd	r24, Y+1	; 0x01
 172:	9a 81       	ldd	r25, Y+2	; 0x02
 174:	20 ea       	ldi	r18, 0xA0	; 160
 176:	30 e0       	ldi	r19, 0x00	; 0
 178:	fc 01       	movw	r30, r24
 17a:	36 83       	std	Z+6, r19	; 0x06
 17c:	25 83       	std	Z+5, r18	; 0x05
            rbfs->sizeof_resource_descriptor_table = 0x0080; //128;
 17e:	89 81       	ldd	r24, Y+1	; 0x01
 180:	9a 81       	ldd	r25, Y+2	; 0x02
 182:	20 e8       	ldi	r18, 0x80	; 128
 184:	30 e0       	ldi	r19, 0x00	; 0
 186:	fc 01       	movw	r30, r24
 188:	30 87       	std	Z+8, r19	; 0x08
 18a:	27 83       	std	Z+7, r18	; 0x07
            rbfs->sizeof_cluster_table = 0xea6; //3750;
 18c:	89 81       	ldd	r24, Y+1	; 0x01
 18e:	9a 81       	ldd	r25, Y+2	; 0x02
 190:	26 ea       	ldi	r18, 0xA6	; 166
 192:	3e e0       	ldi	r19, 0x0E	; 14
 194:	fc 01       	movw	r30, r24
 196:	32 87       	std	Z+10, r19	; 0x0a
 198:	21 87       	std	Z+9, r18	; 0x09
            rbfs->sizeof_resource_descriptor = 0x04; //4;
 19a:	89 81       	ldd	r24, Y+1	; 0x01
 19c:	9a 81       	ldd	r25, Y+2	; 0x02
 19e:	24 e0       	ldi	r18, 0x04	; 4
 1a0:	fc 01       	movw	r30, r24
 1a2:	23 87       	std	Z+11, r18	; 0x0b
            rbfs->sizeof_cluster = 0x0f; //32;
 1a4:	89 81       	ldd	r24, Y+1	; 0x01
 1a6:	9a 81       	ldd	r25, Y+2	; 0x02
 1a8:	2f e0       	ldi	r18, 0x0F	; 15
 1aa:	fc 01       	movw	r30, r24
 1ac:	24 87       	std	Z+12, r18	; 0x0c
            rbfs->resource_descriptor_count = 0x20; //32;
 1ae:	89 81       	ldd	r24, Y+1	; 0x01
 1b0:	9a 81       	ldd	r25, Y+2	; 0x02
 1b2:	20 e2       	ldi	r18, 0x20	; 32
 1b4:	fc 01       	movw	r30, r24
 1b6:	25 87       	std	Z+13, r18	; 0x0d
            rbfs->cluster_count = 0xfa; //250;
 1b8:	89 81       	ldd	r24, Y+1	; 0x01
 1ba:	9a 81       	ldd	r25, Y+2	; 0x02
 1bc:	2a ef       	ldi	r18, 0xFA	; 250
 1be:	fc 01       	movw	r30, r24
 1c0:	26 87       	std	Z+14, r18	; 0x0e
            rbfs->sizeof_cluster_data = 0x0d; //13;
 1c2:	89 81       	ldd	r24, Y+1	; 0x01
 1c4:	9a 81       	ldd	r25, Y+2	; 0x02
 1c6:	2d e0       	ldi	r18, 0x0D	; 13
 1c8:	fc 01       	movw	r30, r24
 1ca:	27 87       	std	Z+15, r18	; 0x0f
            rbfs->sizeof_cluster_control = 0x02; //2;
 1cc:	89 81       	ldd	r24, Y+1	; 0x01
 1ce:	9a 81       	ldd	r25, Y+2	; 0x02
 1d0:	22 e0       	ldi	r18, 0x02	; 2
 1d2:	fc 01       	movw	r30, r24
 1d4:	20 8b       	std	Z+16, r18	; 0x10
            rbfs->free_clusters = 0xfa; //250;
 1d6:	89 81       	ldd	r24, Y+1	; 0x01
 1d8:	9a 81       	ldd	r25, Y+2	; 0x02
 1da:	2a ef       	ldi	r18, 0xFA	; 250
 1dc:	fc 01       	movw	r30, r24
 1de:	21 8b       	std	Z+17, r18	; 0x11
        break;
 1e0:	00 00       	nop
    }
    rbfs->flags = 0x00; //0;
 1e2:	89 81       	ldd	r24, Y+1	; 0x01
 1e4:	9a 81       	ldd	r25, Y+2	; 0x02
 1e6:	fc 01       	movw	r30, r24
 1e8:	12 8a       	std	Z+18, r1	; 0x12
}
 1ea:	0f 90       	pop	r0
 1ec:	0f 90       	pop	r0
 1ee:	0f 90       	pop	r0
 1f0:	0f 90       	pop	r0
 1f2:	0f 90       	pop	r0
 1f4:	df 91       	pop	r29
 1f6:	cf 91       	pop	r28
 1f8:	08 95       	ret

rbfs_util.o:     file format elf32-avr

Sections:
Idx Name          Size      VMA       LMA       File off  Algn
  0 .text         00000000  00000000  00000000  00000034  2**0
                  CONTENTS, ALLOC, LOAD, READONLY, CODE
  1 .data         00000000  00000000  00000000  00000034  2**0
                  CONTENTS, ALLOC, LOAD, DATA
  2 .bss          00000000  00000000  00000000  00000034  2**0
                  ALLOC
  3 .stab         000011b8  00000000  00000000  00000034  2**2
                  CONTENTS, RELOC, READONLY, DEBUGGING
  4 .stabstr      000019a1  00000000  00000000  000011ec  2**0
                  CONTENTS, READONLY, DEBUGGING
  5 .text._rbfs_write_rbfs_to_disk 00000070  00000000  00000000  00002b8d  2**0
                  CONTENTS, ALLOC, LOAD, RELOC, READONLY, CODE
  6 .text._rbfs_read_rbfs_from_disk 00000076  00000000  00000000  00002bfd  2**0
                  CONTENTS, ALLOC, LOAD, RELOC, READONLY, CODE
  7 .text._rbfs_alloc_cluster 000000a0  00000000  00000000  00002c73  2**0
                  CONTENTS, ALLOC, LOAD, RELOC, READONLY, CODE
  8 .text._rbfs_is_free_cluster 000000b6  00000000  00000000  00002d13  2**0
                  CONTENTS, ALLOC, LOAD, RELOC, READONLY, CODE
  9 .text._rbfs_format_cluster 00000084  00000000  00000000  00002dc9  2**0
                  CONTENTS, ALLOC, LOAD, RELOC, READONLY, CODE
 10 .text._rbfs_free_cluster 00000050  00000000  00000000  00002e4d  2**0
                  CONTENTS, ALLOC, LOAD, RELOC, READONLY, CODE
 11 .text._rbfs_create_cluster_chain 000000c6  00000000  00000000  00002e9d  2**0
                  CONTENTS, ALLOC, LOAD, RELOC, READONLY, CODE
 12 .text._rbfs_check_for_eor_reached 0000005c  00000000  00000000  00002f63  2**0
                  CONTENTS, ALLOC, LOAD, RELOC, READONLY, CODE
 13 .text._rbfs_is_eor_reached 00000022  00000000  00000000  00002fbf  2**0
                  CONTENTS, ALLOC, LOAD, RELOC, READONLY, CODE
 14 .text._rbfs_check_for_availability 0000011c  00000000  00000000  00002fe1  2**0
                  CONTENTS, ALLOC, LOAD, RELOC, READONLY, CODE
 15 .text._rbfs_move_current_position_ahead 0000014e  00000000  00000000  000030fd  2**0
                  CONTENTS, ALLOC, LOAD, RELOC, READONLY, CODE
 16 .text._rbfs_move_current_position_back 0000016e  00000000  00000000  0000324b  2**0
                  CONTENTS, ALLOC, LOAD, RELOC, READONLY, CODE
 17 .text._rbfs_format_resorce_descriptor 000000a4  00000000  00000000  000033b9  2**0
                  CONTENTS, ALLOC, LOAD, RELOC, READONLY, CODE
 18 .text._rbfs_is_driver_monted 00000032  00000000  00000000  0000345d  2**0
                  CONTENTS, ALLOC, LOAD, RELOC, READONLY, CODE
 19 .text._rbfs_set_driver_monted 00000066  00000000  00000000  0000348f  2**0
                  CONTENTS, ALLOC, LOAD, RELOC, READONLY, CODE
 20 .text._rbfs_free_resource_descriptors 0000003e  00000000  00000000  000034f5  2**0
                  CONTENTS, ALLOC, LOAD, RELOC, READONLY, CODE
 21 .text._rbfs_free_resource_descriptor 00000090  00000000  00000000  00003533  2**0
                  CONTENTS, ALLOC, LOAD, RELOC, READONLY, CODE
 22 .text._rbfs_format_resource_clusters 00000064  00000000  00000000  000035c3  2**0
                  CONTENTS, ALLOC, LOAD, RELOC, READONLY, CODE
 23 .text._rbfs_format_clusterbfs_chain 0000008c  00000000  00000000  00003627  2**0
                  CONTENTS, ALLOC, LOAD, RELOC, READONLY, CODE
 24 .text._rbfs_has_invalid_attributes 000000ec  00000000  00000000  000036b3  2**0
                  CONTENTS, ALLOC, LOAD, RELOC, READONLY, CODE
 25 .comment      00000012  00000000  00000000  0000379f  2**0
                  CONTENTS, READONLY

Disassembly of section .text._rbfs_write_rbfs_to_disk:

00000000 <_rbfs_write_rbfs_to_disk>:
        cluster = next_cluster;
    } while (1);
    return formated_clusters;
}

uint8_t _rbfs_has_invalid_attributes(rbfs_t *rbfs) {
   0:	cf 93       	push	r28
   2:	df 93       	push	r29
   4:	cd b7       	in	r28, 0x3d	; 61
   6:	de b7       	in	r29, 0x3e	; 62
   8:	28 97       	sbiw	r28, 0x08	; 8
   a:	0f b6       	in	r0, 0x3f	; 63
   c:	f8 94       	cli
    if (rbfs->sizeof_resource_descriptor_table != (rbfs->sizeof_resource_descriptor * rbfs->resource_descriptor_count)) {
   e:	de bf       	out	0x3e, r29	; 62
  10:	0f be       	out	0x3f, r0	; 63
  12:	cd bf       	out	0x3d, r28	; 61
  14:	8e 83       	std	Y+6, r24	; 0x06
  16:	78 87       	std	Y+8, r23	; 0x08
  18:	6f 83       	std	Y+7, r22	; 0x07
  1a:	1d 82       	std	Y+5, r1	; 0x05
  1c:	1c 82       	std	Y+4, r1	; 0x04
  1e:	8f 81       	ldd	r24, Y+7	; 0x07
  20:	98 85       	ldd	r25, Y+8	; 0x08
  22:	9b 83       	std	Y+3, r25	; 0x03
  24:	8a 83       	std	Y+2, r24	; 0x02
  26:	19 82       	std	Y+1, r1	; 0x01
  28:	00 c0       	rjmp	.+0      	; 0x2a <_rbfs_write_rbfs_to_disk+0x2a>
  2a:	8a 81       	ldd	r24, Y+2	; 0x02
  2c:	9b 81       	ldd	r25, Y+3	; 0x03
  2e:	9c 01       	movw	r18, r24
  30:	2f 5f       	subi	r18, 0xFF	; 255
  32:	3f 4f       	sbci	r19, 0xFF	; 255
  34:	3b 83       	std	Y+3, r19	; 0x03
  36:	2a 83       	std	Y+2, r18	; 0x02
  38:	fc 01       	movw	r30, r24
  3a:	40 81       	ld	r20, Z
  3c:	8c 81       	ldd	r24, Y+4	; 0x04
  3e:	9d 81       	ldd	r25, Y+5	; 0x05
  40:	9c 01       	movw	r18, r24
  42:	2f 5f       	subi	r18, 0xFF	; 255
        // TODO: Use macros or constants here.
        return 1;
  44:	3f 4f       	sbci	r19, 0xFF	; 255
  46:	3d 83       	std	Y+5, r19	; 0x05
    }
    if (rbfs->sizeof_cluster_table != (rbfs->sizeof_cluster * rbfs->cluster_count)) {
  48:	2c 83       	std	Y+4, r18	; 0x04
  4a:	bc 01       	movw	r22, r24
  4c:	8e 81       	ldd	r24, Y+6	; 0x06
  4e:	0e 94 00 00 	call	0	; 0x0 <_rbfs_write_rbfs_to_disk>
  52:	89 81       	ldd	r24, Y+1	; 0x01
  54:	8f 5f       	subi	r24, 0xFF	; 255
  56:	89 83       	std	Y+1, r24	; 0x01
  58:	89 81       	ldd	r24, Y+1	; 0x01
  5a:	83 31       	cpi	r24, 0x13	; 19
  5c:	00 f0       	brcs	.+0      	; 0x5e <_rbfs_write_rbfs_to_disk+0x5e>
  5e:	28 96       	adiw	r28, 0x08	; 8
  60:	0f b6       	in	r0, 0x3f	; 63
  62:	f8 94       	cli
  64:	de bf       	out	0x3e, r29	; 62
  66:	0f be       	out	0x3f, r0	; 63
  68:	cd bf       	out	0x3d, r28	; 61
  6a:	df 91       	pop	r29
  6c:	cf 91       	pop	r28
  6e:	08 95       	ret

Disassembly of section .text._rbfs_read_rbfs_from_disk:

00000070 <_rbfs_read_rbfs_from_disk>:
  70:	0f 93       	push	r16
  72:	1f 93       	push	r17
  74:	cf 93       	push	r28
  76:	df 93       	push	r29
  78:	cd b7       	in	r28, 0x3d	; 61
  7a:	de b7       	in	r29, 0x3e	; 62
  7c:	28 97       	sbiw	r28, 0x08	; 8
        return 2;
  7e:	0f b6       	in	r0, 0x3f	; 63
  80:	f8 94       	cli
    }
    if (rbfs->sizeof_cluster != (rbfs->sizeof_cluster_control + rbfs->sizeof_cluster_data)) {
  82:	de bf       	out	0x3e, r29	; 62
  84:	0f be       	out	0x3f, r0	; 63
  86:	cd bf       	out	0x3d, r28	; 61
  88:	8e 83       	std	Y+6, r24	; 0x06
  8a:	78 87       	std	Y+8, r23	; 0x08
  8c:	6f 83       	std	Y+7, r22	; 0x07
  8e:	1d 82       	std	Y+5, r1	; 0x05
  90:	1c 82       	std	Y+4, r1	; 0x04
  92:	8f 81       	ldd	r24, Y+7	; 0x07
  94:	98 85       	ldd	r25, Y+8	; 0x08
  96:	9b 83       	std	Y+3, r25	; 0x03
  98:	8a 83       	std	Y+2, r24	; 0x02
  9a:	19 82       	std	Y+1, r1	; 0x01
  9c:	00 c0       	rjmp	.+0      	; 0x9e <_rbfs_read_rbfs_from_disk+0x2e>
  9e:	0a 81       	ldd	r16, Y+2	; 0x02
  a0:	1b 81       	ldd	r17, Y+3	; 0x03
  a2:	c8 01       	movw	r24, r16
  a4:	01 96       	adiw	r24, 0x01	; 1
  a6:	9b 83       	std	Y+3, r25	; 0x03
  a8:	8a 83       	std	Y+2, r24	; 0x02
  aa:	8c 81       	ldd	r24, Y+4	; 0x04
  ac:	9d 81       	ldd	r25, Y+5	; 0x05
  ae:	9c 01       	movw	r18, r24
        return 3;
  b0:	2f 5f       	subi	r18, 0xFF	; 255
  b2:	3f 4f       	sbci	r19, 0xFF	; 255
    }
    if (rbfs->memory_size != rbfs->sizeof_cluster_table + rbfs->cluster_table_address) {
  b4:	3d 83       	std	Y+5, r19	; 0x05
  b6:	2c 83       	std	Y+4, r18	; 0x04
  b8:	bc 01       	movw	r22, r24
  ba:	8e 81       	ldd	r24, Y+6	; 0x06
  bc:	0e 94 00 00 	call	0	; 0x0 <__tmp_reg__>
  c0:	f8 01       	movw	r30, r16
  c2:	80 83       	st	Z, r24
  c4:	89 81       	ldd	r24, Y+1	; 0x01
  c6:	8f 5f       	subi	r24, 0xFF	; 255
  c8:	89 83       	std	Y+1, r24	; 0x01
  ca:	89 81       	ldd	r24, Y+1	; 0x01
  cc:	83 31       	cpi	r24, 0x13	; 19
  ce:	00 f0       	brcs	.+0      	; 0xd0 <_rbfs_read_rbfs_from_disk+0x60>
  d0:	28 96       	adiw	r28, 0x08	; 8
  d2:	0f b6       	in	r0, 0x3f	; 63
  d4:	f8 94       	cli
  d6:	de bf       	out	0x3e, r29	; 62
  d8:	0f be       	out	0x3f, r0	; 63
  da:	cd bf       	out	0x3d, r28	; 61
        return 4;
  dc:	df 91       	pop	r29
  de:	cf 91       	pop	r28
    }
    return 0;
  e0:	1f 91       	pop	r17
}
  e2:	0f 91       	pop	r16
  e4:	08 95       	ret

Disassembly of section .text._rbfs_alloc_cluster:

00000156 <_rbfs_alloc_cluster>:
 156:	cf 93       	push	r28
 158:	df 93       	push	r29
 15a:	00 d0       	rcall	.+0      	; 0x15c <_rbfs_alloc_cluster+0x6>
 15c:	00 d0       	rcall	.+0      	; 0x15e <_rbfs_alloc_cluster+0x8>
 15e:	1f 92       	push	r1
 160:	cd b7       	in	r28, 0x3d	; 61
 162:	de b7       	in	r29, 0x3e	; 62
 164:	9d 83       	std	Y+5, r25	; 0x05
 166:	8c 83       	std	Y+4, r24	; 0x04
 168:	8c 81       	ldd	r24, Y+4	; 0x04
 16a:	9d 81       	ldd	r25, Y+5	; 0x05
 16c:	fc 01       	movw	r30, r24
 16e:	85 81       	ldd	r24, Z+5	; 0x05
 170:	96 81       	ldd	r25, Z+6	; 0x06
 172:	9a 83       	std	Y+2, r25	; 0x02
 174:	89 83       	std	Y+1, r24	; 0x01
 176:	1b 82       	std	Y+3, r1	; 0x03
 178:	00 c0       	rjmp	.+0      	; 0x17a <_rbfs_alloc_cluster+0x24>
 17a:	8c 81       	ldd	r24, Y+4	; 0x04
 17c:	9d 81       	ldd	r25, Y+5	; 0x05
 17e:	6b 81       	ldd	r22, Y+3	; 0x03
 180:	0e 94 00 00 	call	0	; 0x0 <__tmp_reg__>
 184:	88 23       	and	r24, r24
 186:	01 f0       	breq	.+0      	; 0x188 <_rbfs_alloc_cluster+0x32>
 188:	8c 81       	ldd	r24, Y+4	; 0x04
 18a:	9d 81       	ldd	r25, Y+5	; 0x05
 18c:	fc 01       	movw	r30, r24
 18e:	81 89       	ldd	r24, Z+17	; 0x11
 190:	2f ef       	ldi	r18, 0xFF	; 255
 192:	28 0f       	add	r18, r24
 194:	8c 81       	ldd	r24, Y+4	; 0x04
 196:	9d 81       	ldd	r25, Y+5	; 0x05
 198:	fc 01       	movw	r30, r24
 19a:	21 8b       	std	Z+17, r18	; 0x11
 19c:	8c 81       	ldd	r24, Y+4	; 0x04
 19e:	9d 81       	ldd	r25, Y+5	; 0x05
 1a0:	fc 01       	movw	r30, r24
 1a2:	20 81       	ld	r18, Z
 1a4:	8c 81       	ldd	r24, Y+4	; 0x04
 1a6:	9d 81       	ldd	r25, Y+5	; 0x05
 1a8:	bc 01       	movw	r22, r24
 1aa:	82 2f       	mov	r24, r18
 1ac:	0e 94 00 00 	call	0	; 0x0 <__tmp_reg__>
 1b0:	89 81       	ldd	r24, Y+1	; 0x01
 1b2:	9a 81       	ldd	r25, Y+2	; 0x02
 1b4:	00 c0       	rjmp	.+0      	; 0x1b6 <_rbfs_alloc_cluster+0x60>
 1b6:	8c 81       	ldd	r24, Y+4	; 0x04
 1b8:	9d 81       	ldd	r25, Y+5	; 0x05
 1ba:	fc 01       	movw	r30, r24
 1bc:	84 85       	ldd	r24, Z+12	; 0x0c
 1be:	88 2f       	mov	r24, r24
 1c0:	90 e0       	ldi	r25, 0x00	; 0
 1c2:	29 81       	ldd	r18, Y+1	; 0x01
 1c4:	3a 81       	ldd	r19, Y+2	; 0x02
 1c6:	82 0f       	add	r24, r18
 1c8:	93 1f       	adc	r25, r19
 1ca:	9a 83       	std	Y+2, r25	; 0x02
 1cc:	89 83       	std	Y+1, r24	; 0x01
 1ce:	8b 81       	ldd	r24, Y+3	; 0x03
 1d0:	8f 5f       	subi	r24, 0xFF	; 255
 1d2:	8b 83       	std	Y+3, r24	; 0x03
 1d4:	8c 81       	ldd	r24, Y+4	; 0x04
 1d6:	9d 81       	ldd	r25, Y+5	; 0x05
 1d8:	fc 01       	movw	r30, r24
 1da:	96 85       	ldd	r25, Z+14	; 0x0e
 1dc:	8b 81       	ldd	r24, Y+3	; 0x03
 1de:	89 17       	cp	r24, r25
 1e0:	00 f0       	brcs	.+0      	; 0x1e2 <_rbfs_alloc_cluster+0x8c>
 1e2:	80 e0       	ldi	r24, 0x00	; 0
 1e4:	90 e0       	ldi	r25, 0x00	; 0
 1e6:	0f 90       	pop	r0
 1e8:	0f 90       	pop	r0
 1ea:	0f 90       	pop	r0
 1ec:	0f 90       	pop	r0
 1ee:	0f 90       	pop	r0
 1f0:	df 91       	pop	r29
 1f2:	cf 91       	pop	r28
 1f4:	08 95       	ret

Disassembly of section .text._rbfs_is_free_cluster:

0000034c <_rbfs_is_free_cluster>:
 34c:	cf 93       	push	r28
 34e:	df 93       	push	r29
 350:	00 d0       	rcall	.+0      	; 0x352 <_rbfs_is_free_cluster+0x6>
 352:	1f 92       	push	r1
 354:	cd b7       	in	r28, 0x3d	; 61
 356:	de b7       	in	r29, 0x3e	; 62
 358:	9a 83       	std	Y+2, r25	; 0x02
 35a:	89 83       	std	Y+1, r24	; 0x01
 35c:	6b 83       	std	Y+3, r22	; 0x03
 35e:	89 81       	ldd	r24, Y+1	; 0x01
 360:	9a 81       	ldd	r25, Y+2	; 0x02
 362:	fc 01       	movw	r30, r24
 364:	25 81       	ldd	r18, Z+5	; 0x05
 366:	36 81       	ldd	r19, Z+6	; 0x06
 368:	8b 81       	ldd	r24, Y+3	; 0x03
 36a:	68 2f       	mov	r22, r24
 36c:	70 e0       	ldi	r23, 0x00	; 0
 36e:	89 81       	ldd	r24, Y+1	; 0x01
 370:	9a 81       	ldd	r25, Y+2	; 0x02
 372:	fc 01       	movw	r30, r24
 374:	84 85       	ldd	r24, Z+12	; 0x0c
 376:	48 2f       	mov	r20, r24
 378:	50 e0       	ldi	r21, 0x00	; 0
 37a:	64 9f       	mul	r22, r20
 37c:	c0 01       	movw	r24, r0
 37e:	65 9f       	mul	r22, r21
 380:	90 0d       	add	r25, r0
 382:	74 9f       	mul	r23, r20
 384:	90 0d       	add	r25, r0
 386:	11 24       	eor	r1, r1
 388:	82 0f       	add	r24, r18
 38a:	93 1f       	adc	r25, r19
 38c:	01 96       	adiw	r24, 0x01	; 1
 38e:	29 81       	ldd	r18, Y+1	; 0x01
 390:	3a 81       	ldd	r19, Y+2	; 0x02
 392:	f9 01       	movw	r30, r18
 394:	20 81       	ld	r18, Z
 396:	bc 01       	movw	r22, r24
 398:	82 2f       	mov	r24, r18
 39a:	0e 94 00 00 	call	0	; 0x0 <__tmp_reg__>
 39e:	98 2f       	mov	r25, r24
 3a0:	8b 81       	ldd	r24, Y+3	; 0x03
 3a2:	98 17       	cp	r25, r24
 3a4:	01 f4       	brne	.+0      	; 0x3a6 <_rbfs_is_free_cluster+0x5a>
 3a6:	89 81       	ldd	r24, Y+1	; 0x01
 3a8:	9a 81       	ldd	r25, Y+2	; 0x02
 3aa:	fc 01       	movw	r30, r24
 3ac:	25 81       	ldd	r18, Z+5	; 0x05
 3ae:	36 81       	ldd	r19, Z+6	; 0x06
 3b0:	8b 81       	ldd	r24, Y+3	; 0x03
 3b2:	68 2f       	mov	r22, r24
 3b4:	70 e0       	ldi	r23, 0x00	; 0
 3b6:	89 81       	ldd	r24, Y+1	; 0x01
 3b8:	9a 81       	ldd	r25, Y+2	; 0x02
 3ba:	fc 01       	movw	r30, r24
 3bc:	84 85       	ldd	r24, Z+12	; 0x0c
 3be:	48 2f       	mov	r20, r24
 3c0:	50 e0       	ldi	r21, 0x00	; 0
 3c2:	64 9f       	mul	r22, r20
 3c4:	c0 01       	movw	r24, r0
 3c6:	65 9f       	mul	r22, r21
 3c8:	90 0d       	add	r25, r0
 3ca:	74 9f       	mul	r23, r20
 3cc:	90 0d       	add	r25, r0
 3ce:	11 24       	eor	r1, r1
 3d0:	82 0f       	add	r24, r18
 3d2:	93 1f       	adc	r25, r19
 3d4:	29 81       	ldd	r18, Y+1	; 0x01
 3d6:	3a 81       	ldd	r19, Y+2	; 0x02
 3d8:	f9 01       	movw	r30, r18
 3da:	20 81       	ld	r18, Z
 3dc:	bc 01       	movw	r22, r24
 3de:	82 2f       	mov	r24, r18
 3e0:	0e 94 00 00 	call	0	; 0x0 <__tmp_reg__>
 3e4:	98 2f       	mov	r25, r24
 3e6:	8b 81       	ldd	r24, Y+3	; 0x03
 3e8:	98 17       	cp	r25, r24
 3ea:	01 f4       	brne	.+0      	; 0x3ec <_rbfs_is_free_cluster+0xa0>
 3ec:	81 e0       	ldi	r24, 0x01	; 1
 3ee:	90 e0       	ldi	r25, 0x00	; 0
 3f0:	00 c0       	rjmp	.+0      	; 0x3f2 <_rbfs_is_free_cluster+0xa6>
 3f2:	80 e0       	ldi	r24, 0x00	; 0
 3f4:	90 e0       	ldi	r25, 0x00	; 0
 3f6:	0f 90       	pop	r0
 3f8:	0f 90       	pop	r0
 3fa:	0f 90       	pop	r0
 3fc:	df 91       	pop	r29
 3fe:	cf 91       	pop	r28
 400:	08 95       	ret

Disassembly of section .text._rbfs_format_cluster:

0000074e <_rbfs_format_cluster>:
 74e:	cf 93       	push	r28
 750:	df 93       	push	r29
 752:	00 d0       	rcall	.+0      	; 0x754 <_rbfs_format_cluster+0x6>
 754:	00 d0       	rcall	.+0      	; 0x756 <_rbfs_format_cluster+0x8>
 756:	1f 92       	push	r1
 758:	cd b7       	in	r28, 0x3d	; 61
 75a:	de b7       	in	r29, 0x3e	; 62
 75c:	9c 83       	std	Y+4, r25	; 0x04
 75e:	8b 83       	std	Y+3, r24	; 0x03
 760:	6d 83       	std	Y+5, r22	; 0x05
 762:	8b 81       	ldd	r24, Y+3	; 0x03
 764:	9c 81       	ldd	r25, Y+4	; 0x04
 766:	fc 01       	movw	r30, r24
 768:	25 81       	ldd	r18, Z+5	; 0x05
 76a:	36 81       	ldd	r19, Z+6	; 0x06
 76c:	8d 81       	ldd	r24, Y+5	; 0x05
 76e:	68 2f       	mov	r22, r24
 770:	70 e0       	ldi	r23, 0x00	; 0
 772:	8b 81       	ldd	r24, Y+3	; 0x03
 774:	9c 81       	ldd	r25, Y+4	; 0x04
 776:	fc 01       	movw	r30, r24
 778:	84 85       	ldd	r24, Z+12	; 0x0c
 77a:	48 2f       	mov	r20, r24
 77c:	50 e0       	ldi	r21, 0x00	; 0
 77e:	64 9f       	mul	r22, r20
 780:	c0 01       	movw	r24, r0
 782:	65 9f       	mul	r22, r21
 784:	90 0d       	add	r25, r0
 786:	74 9f       	mul	r23, r20
 788:	90 0d       	add	r25, r0
 78a:	11 24       	eor	r1, r1
 78c:	82 0f       	add	r24, r18
 78e:	93 1f       	adc	r25, r19
 790:	9a 83       	std	Y+2, r25	; 0x02
 792:	89 83       	std	Y+1, r24	; 0x01
 794:	8b 81       	ldd	r24, Y+3	; 0x03
 796:	9c 81       	ldd	r25, Y+4	; 0x04
 798:	fc 01       	movw	r30, r24
 79a:	20 81       	ld	r18, Z
 79c:	89 81       	ldd	r24, Y+1	; 0x01
 79e:	9a 81       	ldd	r25, Y+2	; 0x02
 7a0:	4d 81       	ldd	r20, Y+5	; 0x05
 7a2:	bc 01       	movw	r22, r24
 7a4:	82 2f       	mov	r24, r18
 7a6:	0e 94 00 00 	call	0	; 0x0 <__tmp_reg__>
 7aa:	89 81       	ldd	r24, Y+1	; 0x01
 7ac:	9a 81       	ldd	r25, Y+2	; 0x02
 7ae:	01 96       	adiw	r24, 0x01	; 1
 7b0:	2b 81       	ldd	r18, Y+3	; 0x03
 7b2:	3c 81       	ldd	r19, Y+4	; 0x04
 7b4:	f9 01       	movw	r30, r18
 7b6:	20 81       	ld	r18, Z
 7b8:	4d 81       	ldd	r20, Y+5	; 0x05
 7ba:	bc 01       	movw	r22, r24
 7bc:	82 2f       	mov	r24, r18
 7be:	0e 94 00 00 	call	0	; 0x0 <__tmp_reg__>
 7c2:	0f 90       	pop	r0
 7c4:	0f 90       	pop	r0
 7c6:	0f 90       	pop	r0
 7c8:	0f 90       	pop	r0
 7ca:	0f 90       	pop	r0
 7cc:	df 91       	pop	r29
 7ce:	cf 91       	pop	r28
 7d0:	08 95       	ret

Disassembly of section .text._rbfs_free_cluster:

00000f20 <_rbfs_free_cluster>:
 f20:	cf 93       	push	r28
 f22:	df 93       	push	r29
 f24:	00 d0       	rcall	.+0      	; 0xf26 <_rbfs_free_cluster+0x6>
 f26:	1f 92       	push	r1
 f28:	cd b7       	in	r28, 0x3d	; 61
 f2a:	de b7       	in	r29, 0x3e	; 62
 f2c:	9a 83       	std	Y+2, r25	; 0x02
 f2e:	89 83       	std	Y+1, r24	; 0x01
 f30:	6b 83       	std	Y+3, r22	; 0x03
 f32:	89 81       	ldd	r24, Y+1	; 0x01
 f34:	9a 81       	ldd	r25, Y+2	; 0x02
 f36:	6b 81       	ldd	r22, Y+3	; 0x03
 f38:	0e 94 00 00 	call	0	; 0x0 <__tmp_reg__>
 f3c:	89 81       	ldd	r24, Y+1	; 0x01
 f3e:	9a 81       	ldd	r25, Y+2	; 0x02
 f40:	fc 01       	movw	r30, r24
 f42:	81 89       	ldd	r24, Z+17	; 0x11
 f44:	21 e0       	ldi	r18, 0x01	; 1
 f46:	28 0f       	add	r18, r24
 f48:	89 81       	ldd	r24, Y+1	; 0x01
 f4a:	9a 81       	ldd	r25, Y+2	; 0x02
 f4c:	fc 01       	movw	r30, r24
 f4e:	21 8b       	std	Z+17, r18	; 0x11
 f50:	89 81       	ldd	r24, Y+1	; 0x01
 f52:	9a 81       	ldd	r25, Y+2	; 0x02
 f54:	fc 01       	movw	r30, r24
 f56:	20 81       	ld	r18, Z
 f58:	89 81       	ldd	r24, Y+1	; 0x01
 f5a:	9a 81       	ldd	r25, Y+2	; 0x02
 f5c:	bc 01       	movw	r22, r24
 f5e:	82 2f       	mov	r24, r18
 f60:	0e 94 00 00 	call	0	; 0x0 <__tmp_reg__>
 f64:	0f 90       	pop	r0
 f66:	0f 90       	pop	r0
 f68:	0f 90       	pop	r0
 f6a:	df 91       	pop	r29
 f6c:	cf 91       	pop	r28
 f6e:	08 95       	ret

Disassembly of section .text._rbfs_create_cluster_chain:

00001e90 <_rbfs_create_cluster_chain>:
    1e90:	cf 93       	push	r28
    1e92:	df 93       	push	r29
    1e94:	00 d0       	rcall	.+0      	; 0x1e96 <_rbfs_create_cluster_chain+0x6>
    1e96:	00 d0       	rcall	.+0      	; 0x1e98 <_rbfs_create_cluster_chain+0x8>
    1e98:	00 d0       	rcall	.+0      	; 0x1e9a <_rbfs_create_cluster_chain+0xa>
    1e9a:	cd b7       	in	r28, 0x3d	; 61
    1e9c:	de b7       	in	r29, 0x3e	; 62
    1e9e:	9c 83       	std	Y+4, r25	; 0x04
    1ea0:	8b 83       	std	Y+3, r24	; 0x03
    1ea2:	6d 83       	std	Y+5, r22	; 0x05
    1ea4:	4e 83       	std	Y+6, r20	; 0x06
    1ea6:	8d 81       	ldd	r24, Y+5	; 0x05
    1ea8:	8f 3f       	cpi	r24, 0xFF	; 255
    1eaa:	01 f0       	breq	.+0      	; 0x1eac <_rbfs_create_cluster_chain+0x1c>
    1eac:	8b 81       	ldd	r24, Y+3	; 0x03
    1eae:	9c 81       	ldd	r25, Y+4	; 0x04
    1eb0:	fc 01       	movw	r30, r24
    1eb2:	25 81       	ldd	r18, Z+5	; 0x05
    1eb4:	36 81       	ldd	r19, Z+6	; 0x06
    1eb6:	8d 81       	ldd	r24, Y+5	; 0x05
    1eb8:	68 2f       	mov	r22, r24
    1eba:	70 e0       	ldi	r23, 0x00	; 0
    1ebc:	8b 81       	ldd	r24, Y+3	; 0x03
    1ebe:	9c 81       	ldd	r25, Y+4	; 0x04
    1ec0:	fc 01       	movw	r30, r24
    1ec2:	84 85       	ldd	r24, Z+12	; 0x0c
    1ec4:	48 2f       	mov	r20, r24
    1ec6:	50 e0       	ldi	r21, 0x00	; 0
    1ec8:	64 9f       	mul	r22, r20
    1eca:	c0 01       	movw	r24, r0
    1ecc:	65 9f       	mul	r22, r21
    1ece:	90 0d       	add	r25, r0
    1ed0:	74 9f       	mul	r23, r20
    1ed2:	90 0d       	add	r25, r0
    1ed4:	11 24       	eor	r1, r1
    1ed6:	82 0f       	add	r24, r18
    1ed8:	93 1f       	adc	r25, r19
    1eda:	9a 83       	std	Y+2, r25	; 0x02
    1edc:	89 83       	std	Y+1, r24	; 0x01
    1ede:	8b 81       	ldd	r24, Y+3	; 0x03
    1ee0:	9c 81       	ldd	r25, Y+4	; 0x04
    1ee2:	fc 01       	movw	r30, r24
    1ee4:	20 81       	ld	r18, Z
    1ee6:	89 81       	ldd	r24, Y+1	; 0x01
    1ee8:	9a 81       	ldd	r25, Y+2	; 0x02
    1eea:	4e 81       	ldd	r20, Y+6	; 0x06
    1eec:	bc 01       	movw	r22, r24
    1eee:	82 2f       	mov	r24, r18
    1ef0:	0e 94 00 00 	call	0	; 0x0 <__tmp_reg__>
    1ef4:	8e 81       	ldd	r24, Y+6	; 0x06
    1ef6:	8f 3f       	cpi	r24, 0xFF	; 255
    1ef8:	01 f0       	breq	.+0      	; 0x1efa <_rbfs_create_cluster_chain+0x6a>
    1efa:	8b 81       	ldd	r24, Y+3	; 0x03
    1efc:	9c 81       	ldd	r25, Y+4	; 0x04
    1efe:	fc 01       	movw	r30, r24
    1f00:	25 81       	ldd	r18, Z+5	; 0x05
    1f02:	36 81       	ldd	r19, Z+6	; 0x06
    1f04:	8e 81       	ldd	r24, Y+6	; 0x06
    1f06:	68 2f       	mov	r22, r24
    1f08:	70 e0       	ldi	r23, 0x00	; 0
    1f0a:	8b 81       	ldd	r24, Y+3	; 0x03
    1f0c:	9c 81       	ldd	r25, Y+4	; 0x04
    1f0e:	fc 01       	movw	r30, r24
    1f10:	84 85       	ldd	r24, Z+12	; 0x0c
    1f12:	48 2f       	mov	r20, r24
    1f14:	50 e0       	ldi	r21, 0x00	; 0
    1f16:	64 9f       	mul	r22, r20
    1f18:	c0 01       	movw	r24, r0
    1f1a:	65 9f       	mul	r22, r21
    1f1c:	90 0d       	add	r25, r0
    1f1e:	74 9f       	mul	r23, r20
    1f20:	90 0d       	add	r25, r0
    1f22:	11 24       	eor	r1, r1
    1f24:	82 0f       	add	r24, r18
    1f26:	93 1f       	adc	r25, r19
    1f28:	9a 83       	std	Y+2, r25	; 0x02
    1f2a:	89 83       	std	Y+1, r24	; 0x01
    1f2c:	89 81       	ldd	r24, Y+1	; 0x01
    1f2e:	9a 81       	ldd	r25, Y+2	; 0x02
    1f30:	01 96       	adiw	r24, 0x01	; 1
    1f32:	2b 81       	ldd	r18, Y+3	; 0x03
    1f34:	3c 81       	ldd	r19, Y+4	; 0x04
    1f36:	f9 01       	movw	r30, r18
    1f38:	20 81       	ld	r18, Z
    1f3a:	4d 81       	ldd	r20, Y+5	; 0x05
    1f3c:	bc 01       	movw	r22, r24
    1f3e:	82 2f       	mov	r24, r18
    1f40:	0e 94 00 00 	call	0	; 0x0 <__tmp_reg__>
    1f44:	26 96       	adiw	r28, 0x06	; 6
    1f46:	0f b6       	in	r0, 0x3f	; 63
    1f48:	f8 94       	cli
    1f4a:	de bf       	out	0x3e, r29	; 62
    1f4c:	0f be       	out	0x3f, r0	; 63
    1f4e:	cd bf       	out	0x3d, r28	; 61
    1f50:	df 91       	pop	r29
    1f52:	cf 91       	pop	r28
    1f54:	08 95       	ret

Disassembly of section .text._rbfs_check_for_eor_reached:

00003de6 <_rbfs_check_for_eor_reached>:
    3de6:	cf 93       	push	r28
    3de8:	df 93       	push	r29
    3dea:	00 d0       	rcall	.+0      	; 0x3dec <_rbfs_check_for_eor_reached+0x6>
    3dec:	cd b7       	in	r28, 0x3d	; 61
    3dee:	de b7       	in	r29, 0x3e	; 62
    3df0:	9a 83       	std	Y+2, r25	; 0x02
    3df2:	89 83       	std	Y+1, r24	; 0x01
    3df4:	89 81       	ldd	r24, Y+1	; 0x01
    3df6:	9a 81       	ldd	r25, Y+2	; 0x02
    3df8:	fc 01       	movw	r30, r24
    3dfa:	26 81       	ldd	r18, Z+6	; 0x06
    3dfc:	37 81       	ldd	r19, Z+7	; 0x07
    3dfe:	89 81       	ldd	r24, Y+1	; 0x01
    3e00:	9a 81       	ldd	r25, Y+2	; 0x02
    3e02:	fc 01       	movw	r30, r24
    3e04:	84 81       	ldd	r24, Z+4	; 0x04
    3e06:	95 81       	ldd	r25, Z+5	; 0x05
    3e08:	28 17       	cp	r18, r24
    3e0a:	39 07       	cpc	r19, r25
    3e0c:	00 f0       	brcs	.+0      	; 0x3e0e <_rbfs_check_for_eor_reached+0x28>
    3e0e:	89 81       	ldd	r24, Y+1	; 0x01
    3e10:	9a 81       	ldd	r25, Y+2	; 0x02
    3e12:	fc 01       	movw	r30, r24
    3e14:	80 85       	ldd	r24, Z+8	; 0x08
    3e16:	28 2f       	mov	r18, r24
    3e18:	20 62       	ori	r18, 0x20	; 32
    3e1a:	89 81       	ldd	r24, Y+1	; 0x01
    3e1c:	9a 81       	ldd	r25, Y+2	; 0x02
    3e1e:	fc 01       	movw	r30, r24
    3e20:	20 87       	std	Z+8, r18	; 0x08
    3e22:	00 c0       	rjmp	.+0      	; 0x3e24 <_rbfs_check_for_eor_reached+0x3e>
    3e24:	89 81       	ldd	r24, Y+1	; 0x01
    3e26:	9a 81       	ldd	r25, Y+2	; 0x02
    3e28:	fc 01       	movw	r30, r24
    3e2a:	80 85       	ldd	r24, Z+8	; 0x08
    3e2c:	28 2f       	mov	r18, r24
    3e2e:	2f 7d       	andi	r18, 0xDF	; 223
    3e30:	89 81       	ldd	r24, Y+1	; 0x01
    3e32:	9a 81       	ldd	r25, Y+2	; 0x02
    3e34:	fc 01       	movw	r30, r24
    3e36:	20 87       	std	Z+8, r18	; 0x08
    3e38:	0f 90       	pop	r0
    3e3a:	0f 90       	pop	r0
    3e3c:	df 91       	pop	r29
    3e3e:	cf 91       	pop	r28
    3e40:	08 95       	ret

Disassembly of section .text._rbfs_is_eor_reached:

00007c28 <_rbfs_is_eor_reached>:
    7c28:	cf 93       	push	r28
    7c2a:	df 93       	push	r29
    7c2c:	00 d0       	rcall	.+0      	; 0x7c2e <_rbfs_is_eor_reached+0x6>
    7c2e:	cd b7       	in	r28, 0x3d	; 61
    7c30:	de b7       	in	r29, 0x3e	; 62
    7c32:	9a 83       	std	Y+2, r25	; 0x02
    7c34:	89 83       	std	Y+1, r24	; 0x01
    7c36:	89 81       	ldd	r24, Y+1	; 0x01
    7c38:	9a 81       	ldd	r25, Y+2	; 0x02
    7c3a:	fc 01       	movw	r30, r24
    7c3c:	80 85       	ldd	r24, Z+8	; 0x08
    7c3e:	80 72       	andi	r24, 0x20	; 32
    7c40:	0f 90       	pop	r0
    7c42:	0f 90       	pop	r0
    7c44:	df 91       	pop	r29
    7c46:	cf 91       	pop	r28
    7c48:	08 95       	ret

Disassembly of section .text._rbfs_check_for_availability:

0000f872 <_rbfs_check_for_availability>:
    f872:	cf 93       	push	r28
    f874:	df 93       	push	r29
    f876:	cd b7       	in	r28, 0x3d	; 61
    f878:	de b7       	in	r29, 0x3e	; 62
    f87a:	29 97       	sbiw	r28, 0x09	; 9
    f87c:	0f b6       	in	r0, 0x3f	; 63
    f87e:	f8 94       	cli
    f880:	de bf       	out	0x3e, r29	; 62
    f882:	0f be       	out	0x3f, r0	; 63
    f884:	cd bf       	out	0x3d, r28	; 61
    f886:	9d 83       	std	Y+5, r25	; 0x05
    f888:	8c 83       	std	Y+4, r24	; 0x04
    f88a:	7f 83       	std	Y+7, r23	; 0x07
    f88c:	6e 83       	std	Y+6, r22	; 0x06
    f88e:	8e 81       	ldd	r24, Y+6	; 0x06
    f890:	9f 81       	ldd	r25, Y+7	; 0x07
    f892:	0e 94 00 00 	call	0	; 0x0 <__tmp_reg__>
    f896:	8e 81       	ldd	r24, Y+6	; 0x06
    f898:	9f 81       	ldd	r25, Y+7	; 0x07
    f89a:	fc 01       	movw	r30, r24
    f89c:	23 81       	ldd	r18, Z+3	; 0x03
    f89e:	8c 81       	ldd	r24, Y+4	; 0x04
    f8a0:	9d 81       	ldd	r25, Y+5	; 0x05
    f8a2:	fc 01       	movw	r30, r24
    f8a4:	84 85       	ldd	r24, Z+12	; 0x0c
    f8a6:	28 17       	cp	r18, r24
    f8a8:	00 f4       	brcc	.+0      	; 0xf8aa <_rbfs_check_for_availability+0x38>
    f8aa:	00 c0       	rjmp	.+0      	; 0xf8ac <_rbfs_check_for_availability+0x3a>
    f8ac:	8e 81       	ldd	r24, Y+6	; 0x06
    f8ae:	9f 81       	ldd	r25, Y+7	; 0x07
    f8b0:	0e 94 00 00 	call	0	; 0x0 <__tmp_reg__>
    f8b4:	88 23       	and	r24, r24
    f8b6:	01 f0       	breq	.+0      	; 0xf8b8 <_rbfs_check_for_availability+0x46>
    f8b8:	8c 81       	ldd	r24, Y+4	; 0x04
    f8ba:	9d 81       	ldd	r25, Y+5	; 0x05
    f8bc:	0e 94 00 00 	call	0	; 0x0 <__tmp_reg__>
    f8c0:	9a 83       	std	Y+2, r25	; 0x02
    f8c2:	89 83       	std	Y+1, r24	; 0x01
    f8c4:	89 81       	ldd	r24, Y+1	; 0x01
    f8c6:	9a 81       	ldd	r25, Y+2	; 0x02
    f8c8:	00 97       	sbiw	r24, 0x00	; 0
    f8ca:	01 f4       	brne	.+0      	; 0xf8cc <_rbfs_check_for_availability+0x5a>
    f8cc:	80 e0       	ldi	r24, 0x00	; 0
    f8ce:	00 c0       	rjmp	.+0      	; 0xf8d0 <_rbfs_check_for_availability+0x5e>
    f8d0:	8c 81       	ldd	r24, Y+4	; 0x04
    f8d2:	9d 81       	ldd	r25, Y+5	; 0x05
    f8d4:	fc 01       	movw	r30, r24
    f8d6:	85 81       	ldd	r24, Z+5	; 0x05
    f8d8:	96 81       	ldd	r25, Z+6	; 0x06
    f8da:	29 81       	ldd	r18, Y+1	; 0x01
    f8dc:	3a 81       	ldd	r19, Y+2	; 0x02
    f8de:	a9 01       	movw	r20, r18
    f8e0:	48 1b       	sub	r20, r24
    f8e2:	59 0b       	sbc	r21, r25
    f8e4:	ca 01       	movw	r24, r20
    f8e6:	2c 81       	ldd	r18, Y+4	; 0x04
    f8e8:	3d 81       	ldd	r19, Y+5	; 0x05
    f8ea:	f9 01       	movw	r30, r18
    f8ec:	24 85       	ldd	r18, Z+12	; 0x0c
    f8ee:	22 2f       	mov	r18, r18
    f8f0:	30 e0       	ldi	r19, 0x00	; 0
    f8f2:	b9 01       	movw	r22, r18
    f8f4:	0e 94 00 00 	call	0	; 0x0 <__tmp_reg__>
    f8f8:	cb 01       	movw	r24, r22
    f8fa:	8b 83       	std	Y+3, r24	; 0x03
    f8fc:	8e 81       	ldd	r24, Y+6	; 0x06
    f8fe:	9f 81       	ldd	r25, Y+7	; 0x07
    f900:	fc 01       	movw	r30, r24
    f902:	22 81       	ldd	r18, Z+2	; 0x02
    f904:	8c 81       	ldd	r24, Y+4	; 0x04
    f906:	9d 81       	ldd	r25, Y+5	; 0x05
    f908:	4b 81       	ldd	r20, Y+3	; 0x03
    f90a:	62 2f       	mov	r22, r18
    f90c:	0e 94 00 00 	call	0	; 0x0 <__tmp_reg__>
    f910:	8e 81       	ldd	r24, Y+6	; 0x06
    f912:	9f 81       	ldd	r25, Y+7	; 0x07
    f914:	2b 81       	ldd	r18, Y+3	; 0x03
    f916:	fc 01       	movw	r30, r24
    f918:	22 83       	std	Z+2, r18	; 0x02
    f91a:	00 c0       	rjmp	.+0      	; 0xf91c <_rbfs_check_for_availability+0xaa>
    f91c:	8c 81       	ldd	r24, Y+4	; 0x04
    f91e:	9d 81       	ldd	r25, Y+5	; 0x05
    f920:	fc 01       	movw	r30, r24
    f922:	25 81       	ldd	r18, Z+5	; 0x05
    f924:	36 81       	ldd	r19, Z+6	; 0x06
    f926:	8e 81       	ldd	r24, Y+6	; 0x06
    f928:	9f 81       	ldd	r25, Y+7	; 0x07
    f92a:	fc 01       	movw	r30, r24
    f92c:	82 81       	ldd	r24, Z+2	; 0x02
    f92e:	68 2f       	mov	r22, r24
    f930:	70 e0       	ldi	r23, 0x00	; 0
    f932:	8c 81       	ldd	r24, Y+4	; 0x04
    f934:	9d 81       	ldd	r25, Y+5	; 0x05
    f936:	fc 01       	movw	r30, r24
    f938:	84 85       	ldd	r24, Z+12	; 0x0c
    f93a:	48 2f       	mov	r20, r24
    f93c:	50 e0       	ldi	r21, 0x00	; 0
    f93e:	64 9f       	mul	r22, r20
    f940:	c0 01       	movw	r24, r0
    f942:	65 9f       	mul	r22, r21
    f944:	90 0d       	add	r25, r0
    f946:	74 9f       	mul	r23, r20
    f948:	90 0d       	add	r25, r0
    f94a:	11 24       	eor	r1, r1
    f94c:	82 0f       	add	r24, r18
    f94e:	93 1f       	adc	r25, r19
    f950:	2c 81       	ldd	r18, Y+4	; 0x04
    f952:	3d 81       	ldd	r19, Y+5	; 0x05
    f954:	f9 01       	movw	r30, r18
    f956:	20 81       	ld	r18, Z
    f958:	bc 01       	movw	r22, r24
    f95a:	82 2f       	mov	r24, r18
    f95c:	0e 94 00 00 	call	0	; 0x0 <__tmp_reg__>
    f960:	28 2f       	mov	r18, r24
    f962:	8e 81       	ldd	r24, Y+6	; 0x06
    f964:	9f 81       	ldd	r25, Y+7	; 0x07
    f966:	fc 01       	movw	r30, r24
    f968:	22 83       	std	Z+2, r18	; 0x02
    f96a:	8c 81       	ldd	r24, Y+4	; 0x04
    f96c:	9d 81       	ldd	r25, Y+5	; 0x05
    f96e:	fc 01       	movw	r30, r24
    f970:	20 89       	ldd	r18, Z+16	; 0x10
    f972:	8e 81       	ldd	r24, Y+6	; 0x06
    f974:	9f 81       	ldd	r25, Y+7	; 0x07
    f976:	fc 01       	movw	r30, r24
    f978:	23 83       	std	Z+3, r18	; 0x03
    f97a:	81 e0       	ldi	r24, 0x01	; 1
    f97c:	29 96       	adiw	r28, 0x09	; 9
    f97e:	0f b6       	in	r0, 0x3f	; 63
    f980:	f8 94       	cli
    f982:	de bf       	out	0x3e, r29	; 62
    f984:	0f be       	out	0x3f, r0	; 63
    f986:	cd bf       	out	0x3d, r28	; 61
    f988:	df 91       	pop	r29
    f98a:	cf 91       	pop	r28
    f98c:	08 95       	ret

Disassembly of section .text._rbfs_move_current_position_ahead:

0001f200 <_rbfs_move_current_position_ahead>:
   1f200:	cf 93       	push	r28
   1f202:	df 93       	push	r29
   1f204:	cd b7       	in	r28, 0x3d	; 61
   1f206:	de b7       	in	r29, 0x3e	; 62
   1f208:	2d 97       	sbiw	r28, 0x0d	; 13
   1f20a:	0f b6       	in	r0, 0x3f	; 63
   1f20c:	f8 94       	cli
   1f20e:	de bf       	out	0x3e, r29	; 62
   1f210:	0f be       	out	0x3f, r0	; 63
   1f212:	cd bf       	out	0x3d, r28	; 61
   1f214:	9d 83       	std	Y+5, r25	; 0x05
   1f216:	8c 83       	std	Y+4, r24	; 0x04
   1f218:	7f 83       	std	Y+7, r23	; 0x07
   1f21a:	6e 83       	std	Y+6, r22	; 0x06
   1f21c:	59 87       	std	Y+9, r21	; 0x09
   1f21e:	48 87       	std	Y+8, r20	; 0x08
   1f220:	8e 81       	ldd	r24, Y+6	; 0x06
   1f222:	9f 81       	ldd	r25, Y+7	; 0x07
   1f224:	fc 01       	movw	r30, r24
   1f226:	26 81       	ldd	r18, Z+6	; 0x06
   1f228:	37 81       	ldd	r19, Z+7	; 0x07
   1f22a:	88 85       	ldd	r24, Y+8	; 0x08
   1f22c:	99 85       	ldd	r25, Y+9	; 0x09
   1f22e:	28 0f       	add	r18, r24
   1f230:	39 1f       	adc	r19, r25
   1f232:	8e 81       	ldd	r24, Y+6	; 0x06
   1f234:	9f 81       	ldd	r25, Y+7	; 0x07
   1f236:	fc 01       	movw	r30, r24
   1f238:	37 83       	std	Z+7, r19	; 0x07
   1f23a:	26 83       	std	Z+6, r18	; 0x06
   1f23c:	8c 81       	ldd	r24, Y+4	; 0x04
   1f23e:	9d 81       	ldd	r25, Y+5	; 0x05
   1f240:	fc 01       	movw	r30, r24
   1f242:	24 85       	ldd	r18, Z+12	; 0x0c
   1f244:	8e 81       	ldd	r24, Y+6	; 0x06
   1f246:	9f 81       	ldd	r25, Y+7	; 0x07
   1f248:	fc 01       	movw	r30, r24
   1f24a:	83 81       	ldd	r24, Z+3	; 0x03
   1f24c:	f2 2f       	mov	r31, r18
   1f24e:	f8 1b       	sub	r31, r24
   1f250:	8f 2f       	mov	r24, r31
   1f252:	8a 83       	std	Y+2, r24	; 0x02
   1f254:	8a 81       	ldd	r24, Y+2	; 0x02
   1f256:	28 2f       	mov	r18, r24
   1f258:	30 e0       	ldi	r19, 0x00	; 0
   1f25a:	88 85       	ldd	r24, Y+8	; 0x08
   1f25c:	99 85       	ldd	r25, Y+9	; 0x09
   1f25e:	28 17       	cp	r18, r24
   1f260:	39 07       	cpc	r19, r25
   1f262:	00 f0       	brcs	.+0      	; 0x1f264 <_rbfs_move_current_position_ahead+0x64>
   1f264:	8e 81       	ldd	r24, Y+6	; 0x06
   1f266:	9f 81       	ldd	r25, Y+7	; 0x07
   1f268:	fc 01       	movw	r30, r24
   1f26a:	93 81       	ldd	r25, Z+3	; 0x03
   1f26c:	88 85       	ldd	r24, Y+8	; 0x08
   1f26e:	29 2f       	mov	r18, r25
   1f270:	28 0f       	add	r18, r24
   1f272:	8e 81       	ldd	r24, Y+6	; 0x06
   1f274:	9f 81       	ldd	r25, Y+7	; 0x07
   1f276:	fc 01       	movw	r30, r24
   1f278:	23 83       	std	Z+3, r18	; 0x03
   1f27a:	81 e0       	ldi	r24, 0x01	; 1
   1f27c:	00 c0       	rjmp	.+0      	; 0x1f27e <_rbfs_move_current_position_ahead+0x7e>
   1f27e:	8a 81       	ldd	r24, Y+2	; 0x02
   1f280:	88 2f       	mov	r24, r24
   1f282:	90 e0       	ldi	r25, 0x00	; 0
   1f284:	28 85       	ldd	r18, Y+8	; 0x08
   1f286:	39 85       	ldd	r19, Y+9	; 0x09
   1f288:	a9 01       	movw	r20, r18
   1f28a:	48 1b       	sub	r20, r24
   1f28c:	59 0b       	sbc	r21, r25
   1f28e:	ca 01       	movw	r24, r20
   1f290:	99 87       	std	Y+9, r25	; 0x09
   1f292:	88 87       	std	Y+8, r24	; 0x08
   1f294:	8c 81       	ldd	r24, Y+4	; 0x04
   1f296:	9d 81       	ldd	r25, Y+5	; 0x05
   1f298:	fc 01       	movw	r30, r24
   1f29a:	87 85       	ldd	r24, Z+15	; 0x0f
   1f29c:	28 2f       	mov	r18, r24
   1f29e:	30 e0       	ldi	r19, 0x00	; 0
   1f2a0:	88 85       	ldd	r24, Y+8	; 0x08
   1f2a2:	99 85       	ldd	r25, Y+9	; 0x09
   1f2a4:	b9 01       	movw	r22, r18
   1f2a6:	0e 94 00 00 	call	0	; 0x0 <__tmp_reg__>
   1f2aa:	cb 01       	movw	r24, r22
   1f2ac:	8f 5f       	subi	r24, 0xFF	; 255
   1f2ae:	8b 83       	std	Y+3, r24	; 0x03
   1f2b0:	8c 81       	ldd	r24, Y+4	; 0x04
   1f2b2:	9d 81       	ldd	r25, Y+5	; 0x05
   1f2b4:	fc 01       	movw	r30, r24
   1f2b6:	87 85       	ldd	r24, Z+15	; 0x0f
   1f2b8:	28 2f       	mov	r18, r24
   1f2ba:	30 e0       	ldi	r19, 0x00	; 0
   1f2bc:	88 85       	ldd	r24, Y+8	; 0x08
   1f2be:	99 85       	ldd	r25, Y+9	; 0x09
   1f2c0:	b9 01       	movw	r22, r18
   1f2c2:	0e 94 00 00 	call	0	; 0x0 <__tmp_reg__>
   1f2c6:	28 2f       	mov	r18, r24
   1f2c8:	8c 81       	ldd	r24, Y+4	; 0x04
   1f2ca:	9d 81       	ldd	r25, Y+5	; 0x05
   1f2cc:	fc 01       	movw	r30, r24
   1f2ce:	80 89       	ldd	r24, Z+16	; 0x10
   1f2d0:	28 0f       	add	r18, r24
   1f2d2:	8e 81       	ldd	r24, Y+6	; 0x06
   1f2d4:	9f 81       	ldd	r25, Y+7	; 0x07
   1f2d6:	fc 01       	movw	r30, r24
   1f2d8:	23 83       	std	Z+3, r18	; 0x03
   1f2da:	19 82       	std	Y+1, r1	; 0x01
   1f2dc:	00 c0       	rjmp	.+0      	; 0x1f2de <_rbfs_move_current_position_ahead+0xde>
   1f2de:	8c 81       	ldd	r24, Y+4	; 0x04
   1f2e0:	9d 81       	ldd	r25, Y+5	; 0x05
   1f2e2:	fc 01       	movw	r30, r24
   1f2e4:	25 81       	ldd	r18, Z+5	; 0x05
   1f2e6:	36 81       	ldd	r19, Z+6	; 0x06
   1f2e8:	8e 81       	ldd	r24, Y+6	; 0x06
   1f2ea:	9f 81       	ldd	r25, Y+7	; 0x07
   1f2ec:	fc 01       	movw	r30, r24
   1f2ee:	82 81       	ldd	r24, Z+2	; 0x02
   1f2f0:	68 2f       	mov	r22, r24
   1f2f2:	70 e0       	ldi	r23, 0x00	; 0
   1f2f4:	8c 81       	ldd	r24, Y+4	; 0x04
   1f2f6:	9d 81       	ldd	r25, Y+5	; 0x05
   1f2f8:	fc 01       	movw	r30, r24
   1f2fa:	84 85       	ldd	r24, Z+12	; 0x0c
   1f2fc:	48 2f       	mov	r20, r24
   1f2fe:	50 e0       	ldi	r21, 0x00	; 0
   1f300:	64 9f       	mul	r22, r20
   1f302:	c0 01       	movw	r24, r0
   1f304:	65 9f       	mul	r22, r21
   1f306:	90 0d       	add	r25, r0
   1f308:	74 9f       	mul	r23, r20
   1f30a:	90 0d       	add	r25, r0
   1f30c:	11 24       	eor	r1, r1
   1f30e:	82 0f       	add	r24, r18
   1f310:	93 1f       	adc	r25, r19
   1f312:	2c 81       	ldd	r18, Y+4	; 0x04
   1f314:	3d 81       	ldd	r19, Y+5	; 0x05
   1f316:	f9 01       	movw	r30, r18
   1f318:	20 81       	ld	r18, Z
   1f31a:	bc 01       	movw	r22, r24
   1f31c:	82 2f       	mov	r24, r18
   1f31e:	0e 94 00 00 	call	0	; 0x0 <__tmp_reg__>
   1f322:	28 2f       	mov	r18, r24
   1f324:	8e 81       	ldd	r24, Y+6	; 0x06
   1f326:	9f 81       	ldd	r25, Y+7	; 0x07
   1f328:	fc 01       	movw	r30, r24
   1f32a:	22 83       	std	Z+2, r18	; 0x02
   1f32c:	89 81       	ldd	r24, Y+1	; 0x01
   1f32e:	8f 5f       	subi	r24, 0xFF	; 255
   1f330:	89 83       	std	Y+1, r24	; 0x01
   1f332:	99 81       	ldd	r25, Y+1	; 0x01
   1f334:	8b 81       	ldd	r24, Y+3	; 0x03
   1f336:	98 17       	cp	r25, r24
   1f338:	00 f0       	brcs	.+0      	; 0x1f33a <_rbfs_move_current_position_ahead+0x13a>
   1f33a:	81 e0       	ldi	r24, 0x01	; 1
   1f33c:	2d 96       	adiw	r28, 0x0d	; 13
   1f33e:	0f b6       	in	r0, 0x3f	; 63
   1f340:	f8 94       	cli
   1f342:	de bf       	out	0x3e, r29	; 62
   1f344:	0f be       	out	0x3f, r0	; 63
   1f346:	cd bf       	out	0x3d, r28	; 61
   1f348:	df 91       	pop	r29
   1f34a:	cf 91       	pop	r28
   1f34c:	08 95       	ret

Disassembly of section .text._rbfs_move_current_position_back:

0003e54e <_rbfs_move_current_position_back>:
   3e54e:	cf 93       	push	r28
   3e550:	df 93       	push	r29
   3e552:	cd b7       	in	r28, 0x3d	; 61
   3e554:	de b7       	in	r29, 0x3e	; 62
   3e556:	2f 97       	sbiw	r28, 0x0f	; 15
   3e558:	0f b6       	in	r0, 0x3f	; 63
   3e55a:	f8 94       	cli
   3e55c:	de bf       	out	0x3e, r29	; 62
   3e55e:	0f be       	out	0x3f, r0	; 63
   3e560:	cd bf       	out	0x3d, r28	; 61
   3e562:	9d 83       	std	Y+5, r25	; 0x05
   3e564:	8c 83       	std	Y+4, r24	; 0x04
   3e566:	7f 83       	std	Y+7, r23	; 0x07
   3e568:	6e 83       	std	Y+6, r22	; 0x06
   3e56a:	59 87       	std	Y+9, r21	; 0x09
   3e56c:	48 87       	std	Y+8, r20	; 0x08
   3e56e:	8e 81       	ldd	r24, Y+6	; 0x06
   3e570:	9f 81       	ldd	r25, Y+7	; 0x07
   3e572:	fc 01       	movw	r30, r24
   3e574:	26 81       	ldd	r18, Z+6	; 0x06
   3e576:	37 81       	ldd	r19, Z+7	; 0x07
   3e578:	88 85       	ldd	r24, Y+8	; 0x08
   3e57a:	99 85       	ldd	r25, Y+9	; 0x09
   3e57c:	28 1b       	sub	r18, r24
   3e57e:	39 0b       	sbc	r19, r25
   3e580:	8e 81       	ldd	r24, Y+6	; 0x06
   3e582:	9f 81       	ldd	r25, Y+7	; 0x07
   3e584:	fc 01       	movw	r30, r24
   3e586:	37 83       	std	Z+7, r19	; 0x07
   3e588:	26 83       	std	Z+6, r18	; 0x06
   3e58a:	8e 81       	ldd	r24, Y+6	; 0x06
   3e58c:	9f 81       	ldd	r25, Y+7	; 0x07
   3e58e:	fc 01       	movw	r30, r24
   3e590:	23 81       	ldd	r18, Z+3	; 0x03
   3e592:	8c 81       	ldd	r24, Y+4	; 0x04
   3e594:	9d 81       	ldd	r25, Y+5	; 0x05
   3e596:	fc 01       	movw	r30, r24
   3e598:	80 89       	ldd	r24, Z+16	; 0x10
   3e59a:	f2 2f       	mov	r31, r18
   3e59c:	f8 1b       	sub	r31, r24
   3e59e:	8f 2f       	mov	r24, r31
   3e5a0:	8b 83       	std	Y+3, r24	; 0x03
   3e5a2:	8b 81       	ldd	r24, Y+3	; 0x03
   3e5a4:	28 2f       	mov	r18, r24
   3e5a6:	30 e0       	ldi	r19, 0x00	; 0
   3e5a8:	88 85       	ldd	r24, Y+8	; 0x08
   3e5aa:	99 85       	ldd	r25, Y+9	; 0x09
   3e5ac:	28 17       	cp	r18, r24
   3e5ae:	39 07       	cpc	r19, r25
   3e5b0:	00 f0       	brcs	.+0      	; 0x3e5b2 <_rbfs_move_current_position_back+0x64>
   3e5b2:	8e 81       	ldd	r24, Y+6	; 0x06
   3e5b4:	9f 81       	ldd	r25, Y+7	; 0x07
   3e5b6:	fc 01       	movw	r30, r24
   3e5b8:	93 81       	ldd	r25, Z+3	; 0x03
   3e5ba:	88 85       	ldd	r24, Y+8	; 0x08
   3e5bc:	29 2f       	mov	r18, r25
   3e5be:	28 1b       	sub	r18, r24
   3e5c0:	8e 81       	ldd	r24, Y+6	; 0x06
   3e5c2:	9f 81       	ldd	r25, Y+7	; 0x07
   3e5c4:	fc 01       	movw	r30, r24
   3e5c6:	23 83       	std	Z+3, r18	; 0x03
   3e5c8:	81 e0       	ldi	r24, 0x01	; 1
   3e5ca:	00 c0       	rjmp	.+0      	; 0x3e5cc <_rbfs_move_current_position_back+0x7e>
   3e5cc:	8b 81       	ldd	r24, Y+3	; 0x03
   3e5ce:	88 2f       	mov	r24, r24
   3e5d0:	90 e0       	ldi	r25, 0x00	; 0
   3e5d2:	28 85       	ldd	r18, Y+8	; 0x08
   3e5d4:	39 85       	ldd	r19, Y+9	; 0x09
   3e5d6:	a9 01       	movw	r20, r18
   3e5d8:	48 1b       	sub	r20, r24
   3e5da:	59 0b       	sbc	r21, r25
   3e5dc:	ca 01       	movw	r24, r20
   3e5de:	99 87       	std	Y+9, r25	; 0x09
   3e5e0:	88 87       	std	Y+8, r24	; 0x08
   3e5e2:	8c 81       	ldd	r24, Y+4	; 0x04
   3e5e4:	9d 81       	ldd	r25, Y+5	; 0x05
   3e5e6:	fc 01       	movw	r30, r24
   3e5e8:	87 85       	ldd	r24, Z+15	; 0x0f
   3e5ea:	28 2f       	mov	r18, r24
   3e5ec:	30 e0       	ldi	r19, 0x00	; 0
   3e5ee:	88 85       	ldd	r24, Y+8	; 0x08
   3e5f0:	99 85       	ldd	r25, Y+9	; 0x09
   3e5f2:	b9 01       	movw	r22, r18
   3e5f4:	0e 94 00 00 	call	0	; 0x0 <__tmp_reg__>
   3e5f8:	cb 01       	movw	r24, r22
   3e5fa:	89 83       	std	Y+1, r24	; 0x01
   3e5fc:	8c 81       	ldd	r24, Y+4	; 0x04
   3e5fe:	9d 81       	ldd	r25, Y+5	; 0x05
   3e600:	fc 01       	movw	r30, r24
   3e602:	87 85       	ldd	r24, Z+15	; 0x0f
   3e604:	28 2f       	mov	r18, r24
   3e606:	30 e0       	ldi	r19, 0x00	; 0
   3e608:	88 85       	ldd	r24, Y+8	; 0x08
   3e60a:	99 85       	ldd	r25, Y+9	; 0x09
   3e60c:	b9 01       	movw	r22, r18
   3e60e:	0e 94 00 00 	call	0	; 0x0 <__tmp_reg__>
   3e612:	00 97       	sbiw	r24, 0x00	; 0
   3e614:	01 f0       	breq	.+0      	; 0x3e616 <_rbfs_move_current_position_back+0xc8>
   3e616:	89 81       	ldd	r24, Y+1	; 0x01
   3e618:	8f 5f       	subi	r24, 0xFF	; 255
   3e61a:	89 83       	std	Y+1, r24	; 0x01
   3e61c:	8c 81       	ldd	r24, Y+4	; 0x04
   3e61e:	9d 81       	ldd	r25, Y+5	; 0x05
   3e620:	fc 01       	movw	r30, r24
   3e622:	44 85       	ldd	r20, Z+12	; 0x0c
   3e624:	8c 81       	ldd	r24, Y+4	; 0x04
   3e626:	9d 81       	ldd	r25, Y+5	; 0x05
   3e628:	fc 01       	movw	r30, r24
   3e62a:	87 85       	ldd	r24, Z+15	; 0x0f
   3e62c:	28 2f       	mov	r18, r24
   3e62e:	30 e0       	ldi	r19, 0x00	; 0
   3e630:	88 85       	ldd	r24, Y+8	; 0x08
   3e632:	99 85       	ldd	r25, Y+9	; 0x09
   3e634:	b9 01       	movw	r22, r18
   3e636:	0e 94 00 00 	call	0	; 0x0 <__tmp_reg__>
   3e63a:	24 2f       	mov	r18, r20
   3e63c:	28 1b       	sub	r18, r24
   3e63e:	8e 81       	ldd	r24, Y+6	; 0x06
   3e640:	9f 81       	ldd	r25, Y+7	; 0x07
   3e642:	fc 01       	movw	r30, r24
   3e644:	23 83       	std	Z+3, r18	; 0x03
   3e646:	1a 82       	std	Y+2, r1	; 0x02
   3e648:	00 c0       	rjmp	.+0      	; 0x3e64a <_rbfs_move_current_position_back+0xfc>
   3e64a:	8c 81       	ldd	r24, Y+4	; 0x04
   3e64c:	9d 81       	ldd	r25, Y+5	; 0x05
   3e64e:	fc 01       	movw	r30, r24
   3e650:	25 81       	ldd	r18, Z+5	; 0x05
   3e652:	36 81       	ldd	r19, Z+6	; 0x06
   3e654:	8e 81       	ldd	r24, Y+6	; 0x06
   3e656:	9f 81       	ldd	r25, Y+7	; 0x07
   3e658:	fc 01       	movw	r30, r24
   3e65a:	82 81       	ldd	r24, Z+2	; 0x02
   3e65c:	68 2f       	mov	r22, r24
   3e65e:	70 e0       	ldi	r23, 0x00	; 0
   3e660:	8c 81       	ldd	r24, Y+4	; 0x04
   3e662:	9d 81       	ldd	r25, Y+5	; 0x05
   3e664:	fc 01       	movw	r30, r24
   3e666:	84 85       	ldd	r24, Z+12	; 0x0c
   3e668:	48 2f       	mov	r20, r24
   3e66a:	50 e0       	ldi	r21, 0x00	; 0
   3e66c:	64 9f       	mul	r22, r20
   3e66e:	c0 01       	movw	r24, r0
   3e670:	65 9f       	mul	r22, r21
   3e672:	90 0d       	add	r25, r0
   3e674:	74 9f       	mul	r23, r20
   3e676:	90 0d       	add	r25, r0
   3e678:	11 24       	eor	r1, r1
   3e67a:	82 0f       	add	r24, r18
   3e67c:	93 1f       	adc	r25, r19
   3e67e:	01 96       	adiw	r24, 0x01	; 1
   3e680:	2c 81       	ldd	r18, Y+4	; 0x04
   3e682:	3d 81       	ldd	r19, Y+5	; 0x05
   3e684:	f9 01       	movw	r30, r18
   3e686:	20 81       	ld	r18, Z
   3e688:	bc 01       	movw	r22, r24
   3e68a:	82 2f       	mov	r24, r18
   3e68c:	0e 94 00 00 	call	0	; 0x0 <__tmp_reg__>
   3e690:	28 2f       	mov	r18, r24
   3e692:	8e 81       	ldd	r24, Y+6	; 0x06
   3e694:	9f 81       	ldd	r25, Y+7	; 0x07
   3e696:	fc 01       	movw	r30, r24
   3e698:	22 83       	std	Z+2, r18	; 0x02
   3e69a:	8a 81       	ldd	r24, Y+2	; 0x02
   3e69c:	8f 5f       	subi	r24, 0xFF	; 255
   3e69e:	8a 83       	std	Y+2, r24	; 0x02
   3e6a0:	9a 81       	ldd	r25, Y+2	; 0x02
   3e6a2:	89 81       	ldd	r24, Y+1	; 0x01
   3e6a4:	98 17       	cp	r25, r24
   3e6a6:	00 f0       	brcs	.+0      	; 0x3e6a8 <_rbfs_move_current_position_back+0x15a>
   3e6a8:	81 e0       	ldi	r24, 0x01	; 1
   3e6aa:	2f 96       	adiw	r28, 0x0f	; 15
   3e6ac:	0f b6       	in	r0, 0x3f	; 63
   3e6ae:	f8 94       	cli
   3e6b0:	de bf       	out	0x3e, r29	; 62
   3e6b2:	0f be       	out	0x3f, r0	; 63
   3e6b4:	cd bf       	out	0x3d, r28	; 61
   3e6b6:	df 91       	pop	r29
   3e6b8:	cf 91       	pop	r28
   3e6ba:	08 95       	ret

Disassembly of section .text._rbfs_format_resorce_descriptor:

0007cc0a <_rbfs_format_resorce_descriptor>:
   7cc0a:	cf 93       	push	r28
   7cc0c:	df 93       	push	r29
   7cc0e:	cd b7       	in	r28, 0x3d	; 61
   7cc10:	de b7       	in	r29, 0x3e	; 62
   7cc12:	27 97       	sbiw	r28, 0x07	; 7
   7cc14:	0f b6       	in	r0, 0x3f	; 63
   7cc16:	f8 94       	cli
   7cc18:	de bf       	out	0x3e, r29	; 62
   7cc1a:	0f be       	out	0x3f, r0	; 63
   7cc1c:	cd bf       	out	0x3d, r28	; 61
   7cc1e:	9e 83       	std	Y+6, r25	; 0x06
   7cc20:	8d 83       	std	Y+5, r24	; 0x05
   7cc22:	6f 83       	std	Y+7, r22	; 0x07
   7cc24:	8f 81       	ldd	r24, Y+7	; 0x07
   7cc26:	48 2f       	mov	r20, r24
   7cc28:	50 e0       	ldi	r21, 0x00	; 0
   7cc2a:	8d 81       	ldd	r24, Y+5	; 0x05
   7cc2c:	9e 81       	ldd	r25, Y+6	; 0x06
   7cc2e:	fc 01       	movw	r30, r24
   7cc30:	83 85       	ldd	r24, Z+11	; 0x0b
   7cc32:	28 2f       	mov	r18, r24
   7cc34:	30 e0       	ldi	r19, 0x00	; 0
   7cc36:	42 9f       	mul	r20, r18
   7cc38:	c0 01       	movw	r24, r0
   7cc3a:	43 9f       	mul	r20, r19
   7cc3c:	90 0d       	add	r25, r0
   7cc3e:	52 9f       	mul	r21, r18
   7cc40:	90 0d       	add	r25, r0
   7cc42:	11 24       	eor	r1, r1
   7cc44:	9c 01       	movw	r18, r24
   7cc46:	8d 81       	ldd	r24, Y+5	; 0x05
   7cc48:	9e 81       	ldd	r25, Y+6	; 0x06
   7cc4a:	fc 01       	movw	r30, r24
   7cc4c:	83 81       	ldd	r24, Z+3	; 0x03
   7cc4e:	94 81       	ldd	r25, Z+4	; 0x04
   7cc50:	82 0f       	add	r24, r18
   7cc52:	93 1f       	adc	r25, r19
   7cc54:	9c 83       	std	Y+4, r25	; 0x04
   7cc56:	8b 83       	std	Y+3, r24	; 0x03
   7cc58:	1a 82       	std	Y+2, r1	; 0x02
   7cc5a:	19 82       	std	Y+1, r1	; 0x01
   7cc5c:	00 c0       	rjmp	.+0      	; 0x7cc5e <_rbfs_format_resorce_descriptor+0x54>
   7cc5e:	29 81       	ldd	r18, Y+1	; 0x01
   7cc60:	3a 81       	ldd	r19, Y+2	; 0x02
   7cc62:	8b 81       	ldd	r24, Y+3	; 0x03
   7cc64:	9c 81       	ldd	r25, Y+4	; 0x04
   7cc66:	82 0f       	add	r24, r18
   7cc68:	93 1f       	adc	r25, r19
   7cc6a:	2d 81       	ldd	r18, Y+5	; 0x05
   7cc6c:	3e 81       	ldd	r19, Y+6	; 0x06
   7cc6e:	f9 01       	movw	r30, r18
   7cc70:	20 81       	ld	r18, Z
   7cc72:	40 e0       	ldi	r20, 0x00	; 0
   7cc74:	bc 01       	movw	r22, r24
   7cc76:	82 2f       	mov	r24, r18
   7cc78:	0e 94 00 00 	call	0	; 0x0 <__tmp_reg__>
   7cc7c:	89 81       	ldd	r24, Y+1	; 0x01
   7cc7e:	9a 81       	ldd	r25, Y+2	; 0x02
   7cc80:	01 96       	adiw	r24, 0x01	; 1
   7cc82:	9a 83       	std	Y+2, r25	; 0x02
   7cc84:	89 83       	std	Y+1, r24	; 0x01
   7cc86:	8d 81       	ldd	r24, Y+5	; 0x05
   7cc88:	9e 81       	ldd	r25, Y+6	; 0x06
   7cc8a:	fc 01       	movw	r30, r24
   7cc8c:	83 85       	ldd	r24, Z+11	; 0x0b
   7cc8e:	28 2f       	mov	r18, r24
   7cc90:	30 e0       	ldi	r19, 0x00	; 0
   7cc92:	89 81       	ldd	r24, Y+1	; 0x01
   7cc94:	9a 81       	ldd	r25, Y+2	; 0x02
   7cc96:	82 17       	cp	r24, r18
   7cc98:	93 07       	cpc	r25, r19
   7cc9a:	04 f0       	brlt	.+0      	; 0x7cc9c <_rbfs_format_resorce_descriptor+0x92>
   7cc9c:	27 96       	adiw	r28, 0x07	; 7
   7cc9e:	0f b6       	in	r0, 0x3f	; 63
   7cca0:	f8 94       	cli
   7cca2:	de bf       	out	0x3e, r29	; 62
   7cca4:	0f be       	out	0x3f, r0	; 63
   7cca6:	cd bf       	out	0x3d, r28	; 61
   7cca8:	df 91       	pop	r29
   7ccaa:	cf 91       	pop	r28
   7ccac:	08 95       	ret

Disassembly of section .text._rbfs_is_driver_monted:

000f98b8 <_rbfs_is_driver_monted>:
   f98b8:	cf 93       	push	r28
   f98ba:	df 93       	push	r29
   f98bc:	1f 92       	push	r1
   f98be:	cd b7       	in	r28, 0x3d	; 61
   f98c0:	de b7       	in	r29, 0x3e	; 62
   f98c2:	89 83       	std	Y+1, r24	; 0x01
   f98c4:	80 91 00 00 	lds	r24, 0x0000
   f98c8:	48 2f       	mov	r20, r24
   f98ca:	89 81       	ldd	r24, Y+1	; 0x01
   f98cc:	28 2f       	mov	r18, r24
   f98ce:	30 e0       	ldi	r19, 0x00	; 0
   f98d0:	81 e0       	ldi	r24, 0x01	; 1
   f98d2:	90 e0       	ldi	r25, 0x00	; 0
   f98d4:	02 2e       	mov	r0, r18
   f98d6:	00 c0       	rjmp	.+0      	; 0xf98d8 <_rbfs_is_driver_monted+0x20>
   f98d8:	88 0f       	add	r24, r24
   f98da:	99 1f       	adc	r25, r25
   f98dc:	0a 94       	dec	r0
   f98de:	02 f4       	brpl	.+0      	; 0xf98e0 <_rbfs_is_driver_monted+0x28>
   f98e0:	84 23       	and	r24, r20
   f98e2:	0f 90       	pop	r0
   f98e4:	df 91       	pop	r29
   f98e6:	cf 91       	pop	r28
   f98e8:	08 95       	ret

Disassembly of section .text._rbfs_set_driver_monted:

001f31a2 <_rbfs_set_driver_monted>:
  1f31a2:	cf 93       	push	r28
  1f31a4:	df 93       	push	r29
  1f31a6:	00 d0       	rcall	.+0      	; 0x1f31a8 <_rbfs_set_driver_monted+0x6>
  1f31a8:	cd b7       	in	r28, 0x3d	; 61
  1f31aa:	de b7       	in	r29, 0x3e	; 62
  1f31ac:	89 83       	std	Y+1, r24	; 0x01
  1f31ae:	6a 83       	std	Y+2, r22	; 0x02
  1f31b0:	8a 81       	ldd	r24, Y+2	; 0x02
  1f31b2:	88 23       	and	r24, r24
  1f31b4:	01 f0       	breq	.+0      	; 0x1f31b6 <_rbfs_set_driver_monted+0x14>
  1f31b6:	80 91 00 00 	lds	r24, 0x0000
  1f31ba:	48 2f       	mov	r20, r24
  1f31bc:	89 81       	ldd	r24, Y+1	; 0x01
  1f31be:	28 2f       	mov	r18, r24
  1f31c0:	30 e0       	ldi	r19, 0x00	; 0
  1f31c2:	81 e0       	ldi	r24, 0x01	; 1
  1f31c4:	90 e0       	ldi	r25, 0x00	; 0
  1f31c6:	02 2e       	mov	r0, r18
  1f31c8:	00 c0       	rjmp	.+0      	; 0x1f31ca <_rbfs_set_driver_monted+0x28>
  1f31ca:	88 0f       	add	r24, r24
  1f31cc:	99 1f       	adc	r25, r25
  1f31ce:	0a 94       	dec	r0
  1f31d0:	02 f4       	brpl	.+0      	; 0x1f31d2 <_rbfs_set_driver_monted+0x30>
  1f31d2:	84 2b       	or	r24, r20
  1f31d4:	80 93 00 00 	sts	0x0000, r24
  1f31d8:	00 c0       	rjmp	.+0      	; 0x1f31da <_rbfs_set_driver_monted+0x38>
  1f31da:	80 91 00 00 	lds	r24, 0x0000
  1f31de:	48 2f       	mov	r20, r24
  1f31e0:	89 81       	ldd	r24, Y+1	; 0x01
  1f31e2:	28 2f       	mov	r18, r24
  1f31e4:	30 e0       	ldi	r19, 0x00	; 0
  1f31e6:	81 e0       	ldi	r24, 0x01	; 1
  1f31e8:	90 e0       	ldi	r25, 0x00	; 0
  1f31ea:	02 2e       	mov	r0, r18
  1f31ec:	00 c0       	rjmp	.+0      	; 0x1f31ee <_rbfs_set_driver_monted+0x4c>
  1f31ee:	88 0f       	add	r24, r24
  1f31f0:	99 1f       	adc	r25, r25
  1f31f2:	0a 94       	dec	r0
  1f31f4:	02 f4       	brpl	.+0      	; 0x1f31f6 <_rbfs_set_driver_monted+0x54>
  1f31f6:	80 95       	com	r24
  1f31f8:	84 23       	and	r24, r20
  1f31fa:	80 93 00 00 	sts	0x0000, r24
  1f31fe:	0f 90       	pop	r0
  1f3200:	0f 90       	pop	r0
  1f3202:	df 91       	pop	r29
  1f3204:	cf 91       	pop	r28
  1f3206:	08 95       	ret

Disassembly of section .text._rbfs_free_resource_descriptors:

003e63aa <_rbfs_free_resource_descriptors>:
  3e63aa:	cf 93       	push	r28
  3e63ac:	df 93       	push	r29
  3e63ae:	00 d0       	rcall	.+0      	; 0x3e63b0 <_rbfs_free_resource_descriptors+0x6>
  3e63b0:	1f 92       	push	r1
  3e63b2:	cd b7       	in	r28, 0x3d	; 61
  3e63b4:	de b7       	in	r29, 0x3e	; 62
  3e63b6:	9b 83       	std	Y+3, r25	; 0x03
  3e63b8:	8a 83       	std	Y+2, r24	; 0x02
  3e63ba:	19 82       	std	Y+1, r1	; 0x01
  3e63bc:	00 c0       	rjmp	.+0      	; 0x3e63be <_rbfs_free_resource_descriptors+0x14>
  3e63be:	8a 81       	ldd	r24, Y+2	; 0x02
  3e63c0:	9b 81       	ldd	r25, Y+3	; 0x03
  3e63c2:	69 81       	ldd	r22, Y+1	; 0x01
  3e63c4:	0e 94 00 00 	call	0	; 0x0 <__tmp_reg__>
  3e63c8:	89 81       	ldd	r24, Y+1	; 0x01
  3e63ca:	8f 5f       	subi	r24, 0xFF	; 255
  3e63cc:	89 83       	std	Y+1, r24	; 0x01
  3e63ce:	8a 81       	ldd	r24, Y+2	; 0x02
  3e63d0:	9b 81       	ldd	r25, Y+3	; 0x03
  3e63d2:	fc 01       	movw	r30, r24
  3e63d4:	95 85       	ldd	r25, Z+13	; 0x0d
  3e63d6:	89 81       	ldd	r24, Y+1	; 0x01
  3e63d8:	89 17       	cp	r24, r25
  3e63da:	00 f0       	brcs	.+0      	; 0x3e63dc <_rbfs_free_resource_descriptors+0x32>
  3e63dc:	0f 90       	pop	r0
  3e63de:	0f 90       	pop	r0
  3e63e0:	0f 90       	pop	r0
  3e63e2:	df 91       	pop	r29
  3e63e4:	cf 91       	pop	r28
  3e63e6:	08 95       	ret

Disassembly of section .text._rbfs_free_resource_descriptor:

007cc792 <_rbfs_free_resource_descriptor>:
  7cc792:	cf 93       	push	r28
  7cc794:	df 93       	push	r29
  7cc796:	00 d0       	rcall	.+0      	; 0x7cc798 <_rbfs_free_resource_descriptor+0x6>
  7cc798:	00 d0       	rcall	.+0      	; 0x7cc79a <_rbfs_free_resource_descriptor+0x8>
  7cc79a:	00 d0       	rcall	.+0      	; 0x7cc79c <_rbfs_free_resource_descriptor+0xa>
  7cc79c:	cd b7       	in	r28, 0x3d	; 61
  7cc79e:	de b7       	in	r29, 0x3e	; 62
  7cc7a0:	9d 83       	std	Y+5, r25	; 0x05
  7cc7a2:	8c 83       	std	Y+4, r24	; 0x04
  7cc7a4:	6e 83       	std	Y+6, r22	; 0x06
  7cc7a6:	8e 81       	ldd	r24, Y+6	; 0x06
  7cc7a8:	48 2f       	mov	r20, r24
  7cc7aa:	50 e0       	ldi	r21, 0x00	; 0
  7cc7ac:	8c 81       	ldd	r24, Y+4	; 0x04
  7cc7ae:	9d 81       	ldd	r25, Y+5	; 0x05
  7cc7b0:	fc 01       	movw	r30, r24
  7cc7b2:	83 85       	ldd	r24, Z+11	; 0x0b
  7cc7b4:	28 2f       	mov	r18, r24
  7cc7b6:	30 e0       	ldi	r19, 0x00	; 0
  7cc7b8:	42 9f       	mul	r20, r18
  7cc7ba:	c0 01       	movw	r24, r0
  7cc7bc:	43 9f       	mul	r20, r19
  7cc7be:	90 0d       	add	r25, r0
  7cc7c0:	52 9f       	mul	r21, r18
  7cc7c2:	90 0d       	add	r25, r0
  7cc7c4:	11 24       	eor	r1, r1
  7cc7c6:	9c 01       	movw	r18, r24
  7cc7c8:	8c 81       	ldd	r24, Y+4	; 0x04
  7cc7ca:	9d 81       	ldd	r25, Y+5	; 0x05
  7cc7cc:	fc 01       	movw	r30, r24
  7cc7ce:	83 81       	ldd	r24, Z+3	; 0x03
  7cc7d0:	94 81       	ldd	r25, Z+4	; 0x04
  7cc7d2:	82 0f       	add	r24, r18
  7cc7d4:	93 1f       	adc	r25, r19
  7cc7d6:	9a 83       	std	Y+2, r25	; 0x02
  7cc7d8:	89 83       	std	Y+1, r24	; 0x01
  7cc7da:	89 81       	ldd	r24, Y+1	; 0x01
  7cc7dc:	9a 81       	ldd	r25, Y+2	; 0x02
  7cc7de:	03 96       	adiw	r24, 0x03	; 3
  7cc7e0:	2c 81       	ldd	r18, Y+4	; 0x04
  7cc7e2:	3d 81       	ldd	r19, Y+5	; 0x05
  7cc7e4:	f9 01       	movw	r30, r18
  7cc7e6:	20 81       	ld	r18, Z
  7cc7e8:	bc 01       	movw	r22, r24
  7cc7ea:	82 2f       	mov	r24, r18
  7cc7ec:	0e 94 00 00 	call	0	; 0x0 <__tmp_reg__>
  7cc7f0:	8b 83       	std	Y+3, r24	; 0x03
  7cc7f2:	8b 81       	ldd	r24, Y+3	; 0x03
  7cc7f4:	8c 7f       	andi	r24, 0xFC	; 252
  7cc7f6:	8b 83       	std	Y+3, r24	; 0x03
  7cc7f8:	89 81       	ldd	r24, Y+1	; 0x01
  7cc7fa:	9a 81       	ldd	r25, Y+2	; 0x02
  7cc7fc:	03 96       	adiw	r24, 0x03	; 3
  7cc7fe:	2c 81       	ldd	r18, Y+4	; 0x04
  7cc800:	3d 81       	ldd	r19, Y+5	; 0x05
  7cc802:	f9 01       	movw	r30, r18
  7cc804:	20 81       	ld	r18, Z
  7cc806:	4b 81       	ldd	r20, Y+3	; 0x03
  7cc808:	bc 01       	movw	r22, r24
  7cc80a:	82 2f       	mov	r24, r18
  7cc80c:	0e 94 00 00 	call	0	; 0x0 <__tmp_reg__>
  7cc810:	26 96       	adiw	r28, 0x06	; 6
  7cc812:	0f b6       	in	r0, 0x3f	; 63
  7cc814:	f8 94       	cli
  7cc816:	de bf       	out	0x3e, r29	; 62
  7cc818:	0f be       	out	0x3f, r0	; 63
  7cc81a:	cd bf       	out	0x3d, r28	; 61
  7cc81c:	df 91       	pop	r29
  7cc81e:	cf 91       	pop	r28
  7cc820:	08 95       	ret

Disassembly of section .text._rbfs_format_resource_clusters:

00f98fb4 <_rbfs_format_resource_clusters>:
  f98fb4:	cf 93       	push	r28
  f98fb6:	df 93       	push	r29
  f98fb8:	00 d0       	rcall	.+0      	; 0xf98fba <_rbfs_format_resource_clusters+0x6>
  f98fba:	00 d0       	rcall	.+0      	; 0xf98fbc <_rbfs_format_resource_clusters+0x8>
  f98fbc:	1f 92       	push	r1
  f98fbe:	cd b7       	in	r28, 0x3d	; 61
  f98fc0:	de b7       	in	r29, 0x3e	; 62
  f98fc2:	9b 83       	std	Y+3, r25	; 0x03
  f98fc4:	8a 83       	std	Y+2, r24	; 0x02
  f98fc6:	7d 83       	std	Y+5, r23	; 0x05
  f98fc8:	6c 83       	std	Y+4, r22	; 0x04
  f98fca:	8c 81       	ldd	r24, Y+4	; 0x04
  f98fcc:	9d 81       	ldd	r25, Y+5	; 0x05
  f98fce:	fc 01       	movw	r30, r24
  f98fd0:	21 81       	ldd	r18, Z+1	; 0x01
  f98fd2:	8a 81       	ldd	r24, Y+2	; 0x02
  f98fd4:	9b 81       	ldd	r25, Y+3	; 0x03
  f98fd6:	62 2f       	mov	r22, r18
  f98fd8:	0e 94 00 00 	call	0	; 0x0 <__tmp_reg__>
  f98fdc:	89 83       	std	Y+1, r24	; 0x01
  f98fde:	8a 81       	ldd	r24, Y+2	; 0x02
  f98fe0:	9b 81       	ldd	r25, Y+3	; 0x03
  f98fe2:	fc 01       	movw	r30, r24
  f98fe4:	91 89       	ldd	r25, Z+17	; 0x11
  f98fe6:	89 81       	ldd	r24, Y+1	; 0x01
  f98fe8:	29 2f       	mov	r18, r25
  f98fea:	28 0f       	add	r18, r24
  f98fec:	8a 81       	ldd	r24, Y+2	; 0x02
  f98fee:	9b 81       	ldd	r25, Y+3	; 0x03
  f98ff0:	fc 01       	movw	r30, r24
  f98ff2:	21 8b       	std	Z+17, r18	; 0x11
  f98ff4:	8a 81       	ldd	r24, Y+2	; 0x02
  f98ff6:	9b 81       	ldd	r25, Y+3	; 0x03
  f98ff8:	fc 01       	movw	r30, r24
  f98ffa:	20 81       	ld	r18, Z
  f98ffc:	8a 81       	ldd	r24, Y+2	; 0x02
  f98ffe:	9b 81       	ldd	r25, Y+3	; 0x03
  f99000:	bc 01       	movw	r22, r24
  f99002:	82 2f       	mov	r24, r18
  f99004:	0e 94 00 00 	call	0	; 0x0 <__tmp_reg__>
  f99008:	0f 90       	pop	r0
  f9900a:	0f 90       	pop	r0
  f9900c:	0f 90       	pop	r0
  f9900e:	0f 90       	pop	r0
  f99010:	0f 90       	pop	r0
  f99012:	df 91       	pop	r29
  f99014:	cf 91       	pop	r28
  f99016:	08 95       	ret

Disassembly of section .text._rbfs_format_clusterbfs_chain:

01f31fcc <_rbfs_format_clusterbfs_chain>:
 1f31fcc:	cf 93       	push	r28
 1f31fce:	df 93       	push	r29
 1f31fd0:	00 d0       	rcall	.+0      	; 0x1f31fd2 <_rbfs_format_clusterbfs_chain+0x6>
 1f31fd2:	00 d0       	rcall	.+0      	; 0x1f31fd4 <_rbfs_format_clusterbfs_chain+0x8>
 1f31fd4:	1f 92       	push	r1
 1f31fd6:	cd b7       	in	r28, 0x3d	; 61
 1f31fd8:	de b7       	in	r29, 0x3e	; 62
 1f31fda:	9c 83       	std	Y+4, r25	; 0x04
 1f31fdc:	8b 83       	std	Y+3, r24	; 0x03
 1f31fde:	6d 83       	std	Y+5, r22	; 0x05
 1f31fe0:	19 82       	std	Y+1, r1	; 0x01
 1f31fe2:	8b 81       	ldd	r24, Y+3	; 0x03
 1f31fe4:	9c 81       	ldd	r25, Y+4	; 0x04
 1f31fe6:	fc 01       	movw	r30, r24
 1f31fe8:	25 81       	ldd	r18, Z+5	; 0x05
 1f31fea:	36 81       	ldd	r19, Z+6	; 0x06
 1f31fec:	8d 81       	ldd	r24, Y+5	; 0x05
 1f31fee:	68 2f       	mov	r22, r24
 1f31ff0:	70 e0       	ldi	r23, 0x00	; 0
 1f31ff2:	8b 81       	ldd	r24, Y+3	; 0x03
 1f31ff4:	9c 81       	ldd	r25, Y+4	; 0x04
 1f31ff6:	fc 01       	movw	r30, r24
 1f31ff8:	84 85       	ldd	r24, Z+12	; 0x0c
 1f31ffa:	48 2f       	mov	r20, r24
 1f31ffc:	50 e0       	ldi	r21, 0x00	; 0
 1f31ffe:	64 9f       	mul	r22, r20
 1f32000:	c0 01       	movw	r24, r0
 1f32002:	65 9f       	mul	r22, r21
 1f32004:	90 0d       	add	r25, r0
 1f32006:	74 9f       	mul	r23, r20
 1f32008:	90 0d       	add	r25, r0
 1f3200a:	11 24       	eor	r1, r1
 1f3200c:	82 0f       	add	r24, r18
 1f3200e:	93 1f       	adc	r25, r19
 1f32010:	2b 81       	ldd	r18, Y+3	; 0x03
 1f32012:	3c 81       	ldd	r19, Y+4	; 0x04
 1f32014:	f9 01       	movw	r30, r18
 1f32016:	20 81       	ld	r18, Z
 1f32018:	bc 01       	movw	r22, r24
 1f3201a:	82 2f       	mov	r24, r18
 1f3201c:	0e 94 00 00 	call	0	; 0x0 <__tmp_reg__>
 1f32020:	8a 83       	std	Y+2, r24	; 0x02
 1f32022:	8b 81       	ldd	r24, Y+3	; 0x03
 1f32024:	9c 81       	ldd	r25, Y+4	; 0x04
 1f32026:	6d 81       	ldd	r22, Y+5	; 0x05
 1f32028:	0e 94 00 00 	call	0	; 0x0 <__tmp_reg__>
 1f3202c:	89 81       	ldd	r24, Y+1	; 0x01
 1f3202e:	8f 5f       	subi	r24, 0xFF	; 255
 1f32030:	89 83       	std	Y+1, r24	; 0x01
 1f32032:	8a 81       	ldd	r24, Y+2	; 0x02
 1f32034:	8f 3f       	cpi	r24, 0xFF	; 255
 1f32036:	01 f0       	breq	.+0      	; 0x1f32038 <_rbfs_format_clusterbfs_chain+0x6c>
 1f32038:	9a 81       	ldd	r25, Y+2	; 0x02
 1f3203a:	8d 81       	ldd	r24, Y+5	; 0x05
 1f3203c:	98 17       	cp	r25, r24
 1f3203e:	01 f0       	breq	.+0      	; 0x1f32040 <_rbfs_format_clusterbfs_chain+0x74>
 1f32040:	8a 81       	ldd	r24, Y+2	; 0x02
 1f32042:	8d 83       	std	Y+5, r24	; 0x05
 1f32044:	00 c0       	rjmp	.+0      	; 0x1f32046 <_rbfs_format_clusterbfs_chain+0x7a>
 1f32046:	89 81       	ldd	r24, Y+1	; 0x01
 1f32048:	0f 90       	pop	r0
 1f3204a:	0f 90       	pop	r0
 1f3204c:	0f 90       	pop	r0
 1f3204e:	0f 90       	pop	r0
 1f32050:	0f 90       	pop	r0
 1f32052:	df 91       	pop	r29
 1f32054:	cf 91       	pop	r28
 1f32056:	08 95       	ret

Disassembly of section .text._rbfs_has_invalid_attributes:

03e64024 <_rbfs_has_invalid_attributes>:
 3e64024:	cf 93       	push	r28
 3e64026:	df 93       	push	r29
 3e64028:	00 d0       	rcall	.+0      	; 0x3e6402a <_rbfs_has_invalid_attributes+0x6>
 3e6402a:	cd b7       	in	r28, 0x3d	; 61
 3e6402c:	de b7       	in	r29, 0x3e	; 62
 3e6402e:	9a 83       	std	Y+2, r25	; 0x02
 3e64030:	89 83       	std	Y+1, r24	; 0x01
 3e64032:	89 81       	ldd	r24, Y+1	; 0x01
 3e64034:	9a 81       	ldd	r25, Y+2	; 0x02
 3e64036:	fc 01       	movw	r30, r24
 3e64038:	27 81       	ldd	r18, Z+7	; 0x07
 3e6403a:	30 85       	ldd	r19, Z+8	; 0x08
 3e6403c:	89 81       	ldd	r24, Y+1	; 0x01
 3e6403e:	9a 81       	ldd	r25, Y+2	; 0x02
 3e64040:	fc 01       	movw	r30, r24
 3e64042:	83 85       	ldd	r24, Z+11	; 0x0b
 3e64044:	68 2f       	mov	r22, r24
 3e64046:	70 e0       	ldi	r23, 0x00	; 0
 3e64048:	89 81       	ldd	r24, Y+1	; 0x01
 3e6404a:	9a 81       	ldd	r25, Y+2	; 0x02
 3e6404c:	fc 01       	movw	r30, r24
 3e6404e:	85 85       	ldd	r24, Z+13	; 0x0d
 3e64050:	48 2f       	mov	r20, r24
 3e64052:	50 e0       	ldi	r21, 0x00	; 0
 3e64054:	64 9f       	mul	r22, r20
 3e64056:	c0 01       	movw	r24, r0
 3e64058:	65 9f       	mul	r22, r21
 3e6405a:	90 0d       	add	r25, r0
 3e6405c:	74 9f       	mul	r23, r20
 3e6405e:	90 0d       	add	r25, r0
 3e64060:	11 24       	eor	r1, r1
 3e64062:	28 17       	cp	r18, r24
 3e64064:	39 07       	cpc	r19, r25
 3e64066:	01 f0       	breq	.+0      	; 0x3e64068 <_rbfs_has_invalid_attributes+0x44>
 3e64068:	81 e0       	ldi	r24, 0x01	; 1
 3e6406a:	00 c0       	rjmp	.+0      	; 0x3e6406c <_rbfs_has_invalid_attributes+0x48>
 3e6406c:	89 81       	ldd	r24, Y+1	; 0x01
 3e6406e:	9a 81       	ldd	r25, Y+2	; 0x02
 3e64070:	fc 01       	movw	r30, r24
 3e64072:	21 85       	ldd	r18, Z+9	; 0x09
 3e64074:	32 85       	ldd	r19, Z+10	; 0x0a
 3e64076:	89 81       	ldd	r24, Y+1	; 0x01
 3e64078:	9a 81       	ldd	r25, Y+2	; 0x02
 3e6407a:	fc 01       	movw	r30, r24
 3e6407c:	84 85       	ldd	r24, Z+12	; 0x0c
 3e6407e:	68 2f       	mov	r22, r24
 3e64080:	70 e0       	ldi	r23, 0x00	; 0
 3e64082:	89 81       	ldd	r24, Y+1	; 0x01
 3e64084:	9a 81       	ldd	r25, Y+2	; 0x02
 3e64086:	fc 01       	movw	r30, r24
 3e64088:	86 85       	ldd	r24, Z+14	; 0x0e
 3e6408a:	48 2f       	mov	r20, r24
 3e6408c:	50 e0       	ldi	r21, 0x00	; 0
 3e6408e:	64 9f       	mul	r22, r20
 3e64090:	c0 01       	movw	r24, r0
 3e64092:	65 9f       	mul	r22, r21
 3e64094:	90 0d       	add	r25, r0
 3e64096:	74 9f       	mul	r23, r20
 3e64098:	90 0d       	add	r25, r0
 3e6409a:	11 24       	eor	r1, r1
 3e6409c:	28 17       	cp	r18, r24
 3e6409e:	39 07       	cpc	r19, r25
 3e640a0:	01 f0       	breq	.+0      	; 0x3e640a2 <_rbfs_has_invalid_attributes+0x7e>
 3e640a2:	82 e0       	ldi	r24, 0x02	; 2
 3e640a4:	00 c0       	rjmp	.+0      	; 0x3e640a6 <_rbfs_has_invalid_attributes+0x82>
 3e640a6:	89 81       	ldd	r24, Y+1	; 0x01
 3e640a8:	9a 81       	ldd	r25, Y+2	; 0x02
 3e640aa:	fc 01       	movw	r30, r24
 3e640ac:	84 85       	ldd	r24, Z+12	; 0x0c
 3e640ae:	28 2f       	mov	r18, r24
 3e640b0:	30 e0       	ldi	r19, 0x00	; 0
 3e640b2:	89 81       	ldd	r24, Y+1	; 0x01
 3e640b4:	9a 81       	ldd	r25, Y+2	; 0x02
 3e640b6:	fc 01       	movw	r30, r24
 3e640b8:	80 89       	ldd	r24, Z+16	; 0x10
 3e640ba:	48 2f       	mov	r20, r24
 3e640bc:	50 e0       	ldi	r21, 0x00	; 0
 3e640be:	89 81       	ldd	r24, Y+1	; 0x01
 3e640c0:	9a 81       	ldd	r25, Y+2	; 0x02
 3e640c2:	fc 01       	movw	r30, r24
 3e640c4:	87 85       	ldd	r24, Z+15	; 0x0f
 3e640c6:	88 2f       	mov	r24, r24
 3e640c8:	90 e0       	ldi	r25, 0x00	; 0
 3e640ca:	84 0f       	add	r24, r20
 3e640cc:	95 1f       	adc	r25, r21
 3e640ce:	28 17       	cp	r18, r24
 3e640d0:	39 07       	cpc	r19, r25
 3e640d2:	01 f0       	breq	.+0      	; 0x3e640d4 <_rbfs_has_invalid_attributes+0xb0>
 3e640d4:	83 e0       	ldi	r24, 0x03	; 3
 3e640d6:	00 c0       	rjmp	.+0      	; 0x3e640d8 <_rbfs_has_invalid_attributes+0xb4>
 3e640d8:	89 81       	ldd	r24, Y+1	; 0x01
 3e640da:	9a 81       	ldd	r25, Y+2	; 0x02
 3e640dc:	fc 01       	movw	r30, r24
 3e640de:	21 81       	ldd	r18, Z+1	; 0x01
 3e640e0:	32 81       	ldd	r19, Z+2	; 0x02
 3e640e2:	89 81       	ldd	r24, Y+1	; 0x01
 3e640e4:	9a 81       	ldd	r25, Y+2	; 0x02
 3e640e6:	fc 01       	movw	r30, r24
 3e640e8:	41 85       	ldd	r20, Z+9	; 0x09
 3e640ea:	52 85       	ldd	r21, Z+10	; 0x0a
 3e640ec:	89 81       	ldd	r24, Y+1	; 0x01
 3e640ee:	9a 81       	ldd	r25, Y+2	; 0x02
 3e640f0:	fc 01       	movw	r30, r24
 3e640f2:	85 81       	ldd	r24, Z+5	; 0x05
 3e640f4:	96 81       	ldd	r25, Z+6	; 0x06
 3e640f6:	84 0f       	add	r24, r20
 3e640f8:	95 1f       	adc	r25, r21
 3e640fa:	28 17       	cp	r18, r24
 3e640fc:	39 07       	cpc	r19, r25
 3e640fe:	01 f0       	breq	.+0      	; 0x3e64100 <_rbfs_has_invalid_attributes+0xdc>
 3e64100:	84 e0       	ldi	r24, 0x04	; 4
 3e64102:	00 c0       	rjmp	.+0      	; 0x3e64104 <_rbfs_has_invalid_attributes+0xe0>
 3e64104:	80 e0       	ldi	r24, 0x00	; 0
 3e64106:	0f 90       	pop	r0
 3e64108:	0f 90       	pop	r0
 3e6410a:	df 91       	pop	r29
 3e6410c:	cf 91       	pop	r28
 3e6410e:	08 95       	ret
